(dp0
S'METTS MARK'
p1
(dp2
S'to_messages'
p3
I807
sS'deferral_payments'
p4
S'NaN'
p5
sS'expenses'
p6
I94299
sS'fraction_deferral_payments_total_payments'
p7
F1.0
sS'poi'
p8
I00
sS'deferred_income'
p9
g5
sS'fraction_loan_advances_total_payments'
p10
F1.0
sS'email_address'
p11
S'mark.metts@enron.com'
p12
sS'long_term_incentive'
p13
g5
sS'fraction_bonus_total_payments'
p14
F1.0
sS'fraction_from_poi'
p15
F0.04708798017348203
sS'restricted_stock_deferred'
p16
g5
sS'shared_receipt_with_poi'
p17
I702
sS'loan_advances'
p18
g5
sS'from_messages'
p19
I29
sS'other'
p20
I1740
sS'fraction_other_total_payments'
p21
F1.0
sS'fraction_restricted_stock_total_stock_value'
p22
F1.0
sS'director_fees'
p23
g5
sS'fraction_restricted_stock_deferred_total_stock_value'
p24
F1.0
sS'bonus'
p25
I600000
sS'total_stock_value'
p26
I585062
sS'from_poi_to_this_person'
p27
I38
sS'from_this_person_to_poi'
p28
I1
sS'fraction_long_term_incentive_total_payments'
p29
F1.0
sS'restricted_stock'
p30
I585062
sS'fraction_expenses_total_payments'
p31
F1.0
sS'fraction_deferred_income_total_payments'
p32
F1.0
sS'salary'
p33
I365788
sS'fraction_exercised_stock_options_total_stock_value'
p34
F1.0
sS'total_payments'
p35
I1061827
sS'fraction_director_fees_total_payments'
p36
F1.0
sS'fraction_to_poi'
p37
F0.034482758620689655
sS'exercised_stock_options'
p38
g5
sS'fraction_salary_total_payments'
p39
F1.0
ssS'BAXTER JOHN C'
p40
(dp41
g3
g5
sg4
I1295738
sg6
I11200
sS'fraction_deferral_payments_total_payments'
p42
F1.0
sg8
I00
sg9
I-1386055
sS'fraction_loan_advances_total_payments'
p43
F1.0
sg11
g5
sg13
I1586055
sS'fraction_bonus_total_payments'
p44
F1.0
sg15
F0.0
sg16
g5
sg17
g5
sg18
g5
sg19
g5
sg20
I2660303
sS'fraction_other_total_payments'
p45
F1.0
sS'fraction_restricted_stock_total_stock_value'
p46
F1.0
sg23
g5
sS'fraction_restricted_stock_deferred_total_stock_value'
p47
F1.0
sg25
I1200000
sg26
I10623258
sg27
g5
sg28
g5
sS'fraction_long_term_incentive_total_payments'
p48
F1.0
sg30
I3942714
sS'fraction_expenses_total_payments'
p49
F1.0
sS'fraction_deferred_income_total_payments'
p50
F1.0
sg33
I267102
sS'fraction_exercised_stock_options_total_stock_value'
p51
F1.0
sg35
I5634343
sS'fraction_director_fees_total_payments'
p52
F1.0
sg37
F0.0
sg38
I6680544
sS'fraction_salary_total_payments'
p53
F1.0
ssS'ELLIOTT STEVEN'
p54
(dp55
g3
g5
sg4
g5
sg6
I78552
sS'fraction_deferral_payments_total_payments'
p56
F1.0
sg8
I00
sg9
I-400729
sS'fraction_loan_advances_total_payments'
p57
F1.0
sg11
S'steven.elliott@enron.com'
p58
sg13
g5
sS'fraction_bonus_total_payments'
p59
F1.0
sg15
F0.0
sg16
g5
sg17
g5
sg18
g5
sg19
g5
sg20
I12961
sS'fraction_other_total_payments'
p60
F1.0
sS'fraction_restricted_stock_total_stock_value'
p61
F1.0
sg23
g5
sS'fraction_restricted_stock_deferred_total_stock_value'
p62
F1.0
sg25
I350000
sg26
I6678735
sg27
g5
sg28
g5
sS'fraction_long_term_incentive_total_payments'
p63
F1.0
sg30
I1788391
sS'fraction_expenses_total_payments'
p64
F1.0
sS'fraction_deferred_income_total_payments'
p65
F1.0
sg33
I170941
sS'fraction_exercised_stock_options_total_stock_value'
p66
F1.0
sg35
I211725
sS'fraction_director_fees_total_payments'
p67
F1.0
sg37
F0.0
sg38
I4890344
sS'fraction_salary_total_payments'
p68
F1.0
ssS'CORDES WILLIAM R'
p69
(dp70
g3
I764
sg4
g5
sg6
g5
sS'fraction_deferral_payments_total_payments'
p71
F0.0
sg8
I00
sg9
g5
sS'fraction_loan_advances_total_payments'
p72
F0.0
sg11
S'bill.cordes@enron.com'
p73
sg13
g5
sS'fraction_bonus_total_payments'
p74
F0.0
sg15
F0.013089005235602094
sg16
g5
sg17
I58
sg18
g5
sg19
I12
sg20
g5
sS'fraction_other_total_payments'
p75
F0.0
sS'fraction_restricted_stock_total_stock_value'
p76
F1.0
sg23
g5
sS'fraction_restricted_stock_deferred_total_stock_value'
p77
F1.0
sg25
g5
sg26
I1038185
sg27
I10
sg28
I0
sS'fraction_long_term_incentive_total_payments'
p78
F0.0
sg30
I386335
sS'fraction_expenses_total_payments'
p79
F0.0
sS'fraction_deferred_income_total_payments'
p80
F0.0
sg33
g5
sS'fraction_exercised_stock_options_total_stock_value'
p81
F1.0
sg35
g5
sS'fraction_director_fees_total_payments'
p82
F0.0
sg37
F0.0
sg38
I651850
sS'fraction_salary_total_payments'
p83
F0.0
ssS'HANNON KEVIN P'
p84
(dp85
g3
I1045
sg4
g5
sg6
I34039
sS'fraction_deferral_payments_total_payments'
p86
F1.0
sg8
I01
sg9
I-3117011
sS'fraction_loan_advances_total_payments'
p87
F1.0
sg11
S'kevin.hannon@enron.com'
p88
sg13
I1617011
sS'fraction_bonus_total_payments'
p89
F1.0
sg15
F0.03062200956937799
sg16
g5
sg17
I1035
sg18
g5
sg19
I32
sg20
I11350
sS'fraction_other_total_payments'
p90
F1.0
sS'fraction_restricted_stock_total_stock_value'
p91
F1.0
sg23
g5
sS'fraction_restricted_stock_deferred_total_stock_value'
p92
F1.0
sg25
I1500000
sg26
I6391065
sg27
I32
sg28
I21
sS'fraction_long_term_incentive_total_payments'
p93
F1.0
sg30
I853064
sS'fraction_expenses_total_payments'
p94
F1.0
sS'fraction_deferred_income_total_payments'
p95
F1.0
sg33
I243293
sS'fraction_exercised_stock_options_total_stock_value'
p96
F1.0
sg35
I288682
sS'fraction_director_fees_total_payments'
p97
F1.0
sg37
F0.65625
sg38
I5538001
sS'fraction_salary_total_payments'
p98
F1.0
ssS'MORDAUNT KRISTINA M'
p99
(dp100
g3
g5
sg4
g5
sg6
I35018
sS'fraction_deferral_payments_total_payments'
p101
F1.0
sg8
I00
sg9
g5
sS'fraction_loan_advances_total_payments'
p102
F1.0
sg11
S'kristina.mordaunt@enron.com'
p103
sg13
g5
sS'fraction_bonus_total_payments'
p104
F1.0
sg15
F0.0
sg16
g5
sg17
g5
sg18
g5
sg19
g5
sg20
I1411
sS'fraction_other_total_payments'
p105
F1.0
sS'fraction_restricted_stock_total_stock_value'
p106
F1.0
sg23
g5
sS'fraction_restricted_stock_deferred_total_stock_value'
p107
F1.0
sg25
I325000
sg26
I208510
sg27
g5
sg28
g5
sS'fraction_long_term_incentive_total_payments'
p108
F1.0
sg30
I208510
sS'fraction_expenses_total_payments'
p109
F1.0
sS'fraction_deferred_income_total_payments'
p110
F1.0
sg33
I267093
sS'fraction_exercised_stock_options_total_stock_value'
p111
F1.0
sg35
I628522
sS'fraction_director_fees_total_payments'
p112
F1.0
sg37
F0.0
sg38
g5
sS'fraction_salary_total_payments'
p113
F1.0
ssS'MEYER ROCKFORD G'
p114
(dp115
g3
I232
sg4
I1848227
sg6
g5
sS'fraction_deferral_payments_total_payments'
p116
F1.0
sg8
I00
sg9
g5
sS'fraction_loan_advances_total_payments'
p117
F1.0
sg11
S'rockford.meyer@enron.com'
p118
sg13
g5
sS'fraction_bonus_total_payments'
p119
F1.0
sg15
F0.0
sg16
g5
sg17
I22
sg18
g5
sg19
I28
sg20
g5
sS'fraction_other_total_payments'
p120
F1.0
sS'fraction_restricted_stock_total_stock_value'
p121
F1.0
sg23
g5
sS'fraction_restricted_stock_deferred_total_stock_value'
p122
F1.0
sg25
g5
sg26
I955873
sg27
I0
sg28
I0
sS'fraction_long_term_incentive_total_payments'
p123
F1.0
sg30
I462384
sS'fraction_expenses_total_payments'
p124
F1.0
sS'fraction_deferred_income_total_payments'
p125
F1.0
sg33
g5
sS'fraction_exercised_stock_options_total_stock_value'
p126
F1.0
sg35
I1848227
sS'fraction_director_fees_total_payments'
p127
F1.0
sg37
F0.0
sg38
I493489
sS'fraction_salary_total_payments'
p128
F1.0
ssS'MCMAHON JEFFREY'
p129
(dp130
g3
I2355
sg4
g5
sg6
I137108
sS'fraction_deferral_payments_total_payments'
p131
F1.0
sg8
I00
sg9
g5
sS'fraction_loan_advances_total_payments'
p132
F1.0
sg11
S'jeffrey.mcmahon@enron.com'
p133
sg13
I694862
sS'fraction_bonus_total_payments'
p134
F1.0
sg15
F0.024628450106157114
sg16
g5
sg17
I2228
sg18
g5
sg19
I48
sg20
I297353
sS'fraction_other_total_payments'
p135
F1.0
sS'fraction_restricted_stock_total_stock_value'
p136
F1.0
sg23
g5
sS'fraction_restricted_stock_deferred_total_stock_value'
p137
F1.0
sg25
I2600000
sg26
I1662855
sg27
I58
sg28
I26
sS'fraction_long_term_incentive_total_payments'
p138
F1.0
sg30
I558801
sS'fraction_expenses_total_payments'
p139
F1.0
sS'fraction_deferred_income_total_payments'
p140
F1.0
sg33
I370448
sS'fraction_exercised_stock_options_total_stock_value'
p141
F1.0
sg35
I4099771
sS'fraction_director_fees_total_payments'
p142
F1.0
sg37
F0.5416666666666666
sg38
I1104054
sS'fraction_salary_total_payments'
p143
F1.0
ssS'HORTON STANLEY C'
p144
(dp145
g3
I2350
sg4
I3131860
sg6
g5
sS'fraction_deferral_payments_total_payments'
p146
F1.0
sg8
I00
sg9
g5
sS'fraction_loan_advances_total_payments'
p147
F1.0
sg11
S'stanley.horton@enron.com'
p148
sg13
g5
sS'fraction_bonus_total_payments'
p149
F1.0
sg15
F0.01872340425531915
sg16
g5
sg17
I1074
sg18
g5
sg19
I1073
sg20
g5
sS'fraction_other_total_payments'
p150
F1.0
sS'fraction_restricted_stock_total_stock_value'
p151
F1.0
sg23
g5
sS'fraction_restricted_stock_deferred_total_stock_value'
p152
F1.0
sg25
g5
sg26
I7256648
sg27
I44
sg28
I15
sS'fraction_long_term_incentive_total_payments'
p153
F1.0
sg30
I2046079
sS'fraction_expenses_total_payments'
p154
F1.0
sS'fraction_deferred_income_total_payments'
p155
F1.0
sg33
g5
sS'fraction_exercised_stock_options_total_stock_value'
p156
F1.0
sg35
I3131860
sS'fraction_director_fees_total_payments'
p157
F1.0
sg37
F0.013979496738117428
sg38
I5210569
sS'fraction_salary_total_payments'
p158
F1.0
ssS'PIPER GREGORY F'
p159
(dp160
g3
I1238
sg4
I1130036
sg6
I43057
sS'fraction_deferral_payments_total_payments'
p161
F1.0
sg8
I00
sg9
I-33333
sS'fraction_loan_advances_total_payments'
p162
F1.0
sg11
S'greg.piper@enron.com'
p163
sg13
g5
sS'fraction_bonus_total_payments'
p164
F1.0
sg15
F0.049273021001615507
sg16
I-409554
sg17
I742
sg18
g5
sg19
I222
sg20
I778
sS'fraction_other_total_payments'
p165
F1.0
sS'fraction_restricted_stock_total_stock_value'
p166
F1.0
sg23
g5
sS'fraction_restricted_stock_deferred_total_stock_value'
p167
F1.0
sg25
I400000
sg26
I880290
sg27
I61
sg28
I48
sS'fraction_long_term_incentive_total_payments'
p168
F1.0
sg30
I409554
sS'fraction_expenses_total_payments'
p169
F1.0
sS'fraction_deferred_income_total_payments'
p170
F1.0
sg33
I197091
sS'fraction_exercised_stock_options_total_stock_value'
p171
F1.0
sg35
I1737629
sS'fraction_director_fees_total_payments'
p172
F1.0
sg37
F0.21621621621621623
sg38
I880290
sS'fraction_salary_total_payments'
p173
F1.0
ssS'HUMPHREY GENE E'
p174
(dp175
g3
I128
sg4
I2964506
sg6
I4994
sS'fraction_deferral_payments_total_payments'
p176
F1.0
sg8
I00
sg9
g5
sS'fraction_loan_advances_total_payments'
p177
F1.0
sg11
S'gene.humphrey@enron.com'
p178
sg13
g5
sS'fraction_bonus_total_payments'
p179
F1.0
sg15
F0.078125
sg16
g5
sg17
I119
sg18
g5
sg19
I17
sg20
g5
sS'fraction_other_total_payments'
p180
F1.0
sS'fraction_restricted_stock_total_stock_value'
p181
F1.0
sg23
g5
sS'fraction_restricted_stock_deferred_total_stock_value'
p182
F1.0
sg25
g5
sg26
I2282768
sg27
I10
sg28
I17
sS'fraction_long_term_incentive_total_payments'
p183
F1.0
sg30
g5
sS'fraction_expenses_total_payments'
p184
F1.0
sS'fraction_deferred_income_total_payments'
p185
F1.0
sg33
I130724
sS'fraction_exercised_stock_options_total_stock_value'
p186
F1.0
sg35
I3100224
sS'fraction_director_fees_total_payments'
p187
F1.0
sg37
F1.0
sg38
I2282768
sS'fraction_salary_total_payments'
p188
F1.0
ssS'UMANOFF ADAM S'
p189
(dp190
g3
I111
sg4
g5
sg6
I53122
sS'fraction_deferral_payments_total_payments'
p191
F1.0
sg8
I00
sg9
g5
sS'fraction_loan_advances_total_payments'
p192
F1.0
sg11
S'adam.umanoff@enron.com'
p193
sg13
g5
sS'fraction_bonus_total_payments'
p194
F1.0
sg15
F0.10810810810810811
sg16
g5
sg17
I41
sg18
g5
sg19
I18
sg20
g5
sS'fraction_other_total_payments'
p195
F1.0
sS'fraction_restricted_stock_total_stock_value'
p196
F0.0
sg23
g5
sS'fraction_restricted_stock_deferred_total_stock_value'
p197
F0.0
sg25
I788750
sg26
g5
sg27
I12
sg28
I0
sS'fraction_long_term_incentive_total_payments'
p198
F1.0
sg30
g5
sS'fraction_expenses_total_payments'
p199
F1.0
sS'fraction_deferred_income_total_payments'
p200
F1.0
sg33
I288589
sS'fraction_exercised_stock_options_total_stock_value'
p201
F0.0
sg35
I1130461
sS'fraction_director_fees_total_payments'
p202
F1.0
sg37
F0.0
sg38
g5
sS'fraction_salary_total_payments'
p203
F1.0
ssS'BLACHMAN JEREMY M'
p204
(dp205
g3
I2475
sg4
g5
sg6
I84208
sS'fraction_deferral_payments_total_payments'
p206
F1.0
sg8
I00
sg9
g5
sS'fraction_loan_advances_total_payments'
p207
F1.0
sg11
S'jeremy.blachman@enron.com'
p208
sg13
I831809
sS'fraction_bonus_total_payments'
p209
F1.0
sg15
F0.010101010101010102
sg16
g5
sg17
I2326
sg18
g5
sg19
I14
sg20
I272
sS'fraction_other_total_payments'
p210
F1.0
sS'fraction_restricted_stock_total_stock_value'
p211
F1.0
sg23
g5
sS'fraction_restricted_stock_deferred_total_stock_value'
p212
F1.0
sg25
I850000
sg26
I954354
sg27
I25
sg28
I2
sS'fraction_long_term_incentive_total_payments'
p213
F1.0
sg30
I189041
sS'fraction_expenses_total_payments'
p214
F1.0
sS'fraction_deferred_income_total_payments'
p215
F1.0
sg33
I248546
sS'fraction_exercised_stock_options_total_stock_value'
p216
F1.0
sg35
I2014835
sS'fraction_director_fees_total_payments'
p217
F1.0
sg37
F0.14285714285714285
sg38
I765313
sS'fraction_salary_total_payments'
p218
F1.0
ssS'SUNDE MARTIN'
p219
(dp220
g3
I2647
sg4
g5
sg6
g5
sS'fraction_deferral_payments_total_payments'
p221
F1.0
sg8
I00
sg9
g5
sS'fraction_loan_advances_total_payments'
p222
F1.0
sg11
S'marty.sunde@enron.com'
p223
sg13
I476451
sS'fraction_bonus_total_payments'
p224
F1.0
sg15
F0.013978088401964487
sg16
g5
sg17
I2565
sg18
g5
sg19
I38
sg20
I111122
sS'fraction_other_total_payments'
p225
F1.0
sS'fraction_restricted_stock_total_stock_value'
p226
F1.0
sg23
g5
sS'fraction_restricted_stock_deferred_total_stock_value'
p227
F1.0
sg25
I700000
sg26
I698920
sg27
I37
sg28
I13
sS'fraction_long_term_incentive_total_payments'
p228
F1.0
sg30
I698920
sS'fraction_expenses_total_payments'
p229
F1.0
sS'fraction_deferred_income_total_payments'
p230
F1.0
sg33
I257486
sS'fraction_exercised_stock_options_total_stock_value'
p231
F1.0
sg35
I1545059
sS'fraction_director_fees_total_payments'
p232
F1.0
sg37
F0.34210526315789475
sg38
g5
sS'fraction_salary_total_payments'
p233
F1.0
ssS'GIBBS DANA R'
p234
(dp235
g3
I169
sg4
I504610
sg6
g5
sS'fraction_deferral_payments_total_payments'
p236
F1.0
sg8
I00
sg9
g5
sS'fraction_loan_advances_total_payments'
p237
F1.0
sg11
S'dana.gibbs@enron.com'
p238
sg13
I461912
sS'fraction_bonus_total_payments'
p239
F1.0
sg15
F0.0
sg16
g5
sg17
I23
sg18
g5
sg19
I12
sg20
g5
sS'fraction_other_total_payments'
p240
F1.0
sS'fraction_restricted_stock_total_stock_value'
p241
F1.0
sg23
g5
sS'fraction_restricted_stock_deferred_total_stock_value'
p242
F1.0
sg25
g5
sg26
I2218275
sg27
I0
sg28
I0
sS'fraction_long_term_incentive_total_payments'
p243
F1.0
sg30
g5
sS'fraction_expenses_total_payments'
p244
F1.0
sS'fraction_deferred_income_total_payments'
p245
F1.0
sg33
g5
sS'fraction_exercised_stock_options_total_stock_value'
p246
F1.0
sg35
I966522
sS'fraction_director_fees_total_payments'
p247
F1.0
sg37
F0.0
sg38
I2218275
sS'fraction_salary_total_payments'
p248
F1.0
ssS'LOWRY CHARLES P'
p249
(dp250
g3
g5
sg4
g5
sg6
g5
sS'fraction_deferral_payments_total_payments'
p251
F0.0
sg8
I00
sg9
g5
sS'fraction_loan_advances_total_payments'
p252
F0.0
sg11
g5
sg13
g5
sS'fraction_bonus_total_payments'
p253
F0.0
sg15
F0.0
sg16
I-153686
sg17
g5
sg18
g5
sg19
g5
sg20
g5
sS'fraction_other_total_payments'
p254
F0.0
sS'fraction_restricted_stock_total_stock_value'
p255
F1.0
sg23
g5
sS'fraction_restricted_stock_deferred_total_stock_value'
p256
F1.0
sg25
g5
sg26
I372205
sg27
g5
sg28
g5
sS'fraction_long_term_incentive_total_payments'
p257
F0.0
sg30
I153686
sS'fraction_expenses_total_payments'
p258
F0.0
sS'fraction_deferred_income_total_payments'
p259
F0.0
sg33
g5
sS'fraction_exercised_stock_options_total_stock_value'
p260
F1.0
sg35
g5
sS'fraction_director_fees_total_payments'
p261
F0.0
sg37
F0.0
sg38
I372205
sS'fraction_salary_total_payments'
p262
F0.0
ssS'COLWELL WESLEY'
p263
(dp264
g3
I1758
sg4
I27610
sg6
I16514
sS'fraction_deferral_payments_total_payments'
p265
F1.0
sg8
I01
sg9
I-144062
sS'fraction_loan_advances_total_payments'
p266
F1.0
sg11
S'wes.colwell@enron.com'
p267
sg13
g5
sS'fraction_bonus_total_payments'
p268
F1.0
sg15
F0.13651877133105803
sg16
g5
sg17
I1132
sg18
g5
sg19
I40
sg20
I101740
sS'fraction_other_total_payments'
p269
F1.0
sS'fraction_restricted_stock_total_stock_value'
p270
F1.0
sg23
g5
sS'fraction_restricted_stock_deferred_total_stock_value'
p271
F1.0
sg25
I1200000
sg26
I698242
sg27
I240
sg28
I11
sS'fraction_long_term_incentive_total_payments'
p272
F1.0
sg30
I698242
sS'fraction_expenses_total_payments'
p273
F1.0
sS'fraction_deferred_income_total_payments'
p274
F1.0
sg33
I288542
sS'fraction_exercised_stock_options_total_stock_value'
p275
F1.0
sg35
I1490344
sS'fraction_director_fees_total_payments'
p276
F1.0
sg37
F0.275
sg38
g5
sS'fraction_salary_total_payments'
p277
F1.0
ssS'MULLER MARK S'
p278
(dp279
g3
I136
sg4
I842924
sg6
g5
sS'fraction_deferral_payments_total_payments'
p280
F1.0
sg8
I00
sg9
I-719000
sS'fraction_loan_advances_total_payments'
p281
F1.0
sg11
S's..muller@enron.com'
p282
sg13
I1725545
sS'fraction_bonus_total_payments'
p283
F1.0
sg15
F0.08823529411764706
sg16
g5
sg17
I114
sg18
g5
sg19
I16
sg20
I947
sS'fraction_other_total_payments'
p284
F1.0
sS'fraction_restricted_stock_total_stock_value'
p285
F1.0
sg23
g5
sS'fraction_restricted_stock_deferred_total_stock_value'
p286
F1.0
sg25
I1100000
sg26
I1416848
sg27
I12
sg28
I0
sS'fraction_long_term_incentive_total_payments'
p287
F1.0
sg30
I360528
sS'fraction_expenses_total_payments'
p288
F1.0
sS'fraction_deferred_income_total_payments'
p289
F1.0
sg33
I251654
sS'fraction_exercised_stock_options_total_stock_value'
p290
F1.0
sg35
I3202070
sS'fraction_director_fees_total_payments'
p291
F1.0
sg37
F0.0
sg38
I1056320
sS'fraction_salary_total_payments'
p292
F1.0
ssS'JACKSON CHARLENE R'
p293
(dp294
g3
I258
sg4
g5
sg6
I10181
sS'fraction_deferral_payments_total_payments'
p295
F1.0
sg8
I00
sg9
g5
sS'fraction_loan_advances_total_payments'
p296
F1.0
sg11
S'charlene.jackson@enron.com'
p297
sg13
g5
sS'fraction_bonus_total_payments'
p298
F1.0
sg15
F0.09689922480620156
sg16
g5
sg17
I117
sg18
g5
sg19
I56
sg20
I2435
sS'fraction_other_total_payments'
p299
F1.0
sS'fraction_restricted_stock_total_stock_value'
p300
F1.0
sg23
g5
sS'fraction_restricted_stock_deferred_total_stock_value'
p301
F1.0
sg25
I250000
sg26
I725735
sg27
I25
sg28
I19
sS'fraction_long_term_incentive_total_payments'
p302
F1.0
sg30
I540672
sS'fraction_expenses_total_payments'
p303
F1.0
sS'fraction_deferred_income_total_payments'
p304
F1.0
sg33
I288558
sS'fraction_exercised_stock_options_total_stock_value'
p305
F1.0
sg35
I551174
sS'fraction_director_fees_total_payments'
p306
F1.0
sg37
F0.3392857142857143
sg38
I185063
sS'fraction_salary_total_payments'
p307
F1.0
ssS'WESTFAHL RICHARD K'
p308
(dp309
g3
g5
sg4
g5
sg6
I51870
sS'fraction_deferral_payments_total_payments'
p310
F1.0
sg8
I00
sg9
I-10800
sS'fraction_loan_advances_total_payments'
p311
F1.0
sg11
S'dick.westfahl@enron.com'
p312
sg13
I256191
sS'fraction_bonus_total_payments'
p313
F1.0
sg15
F0.0
sg16
g5
sg17
g5
sg18
g5
sg19
g5
sg20
I401130
sS'fraction_other_total_payments'
p314
F1.0
sS'fraction_restricted_stock_total_stock_value'
p315
F1.0
sg23
g5
sS'fraction_restricted_stock_deferred_total_stock_value'
p316
F1.0
sg25
g5
sg26
I384930
sg27
g5
sg28
g5
sS'fraction_long_term_incentive_total_payments'
p317
F1.0
sg30
I384930
sS'fraction_expenses_total_payments'
p318
F1.0
sS'fraction_deferred_income_total_payments'
p319
F1.0
sg33
I63744
sS'fraction_exercised_stock_options_total_stock_value'
p320
F1.0
sg35
I762135
sS'fraction_director_fees_total_payments'
p321
F1.0
sg37
F0.0
sg38
g5
sS'fraction_salary_total_payments'
p322
F1.0
ssS'WALTERS GARETH W'
p323
(dp324
g3
g5
sg4
I53625
sg6
I33785
sS'fraction_deferral_payments_total_payments'
p325
F1.0
sg8
I00
sg9
g5
sS'fraction_loan_advances_total_payments'
p326
F1.0
sg11
g5
sg13
g5
sS'fraction_bonus_total_payments'
p327
F1.0
sg15
F0.0
sg16
g5
sg17
g5
sg18
g5
sg19
g5
sg20
g5
sS'fraction_other_total_payments'
p328
F1.0
sS'fraction_restricted_stock_total_stock_value'
p329
F1.0
sg23
g5
sS'fraction_restricted_stock_deferred_total_stock_value'
p330
F1.0
sg25
g5
sg26
I1030329
sg27
g5
sg28
g5
sS'fraction_long_term_incentive_total_payments'
p331
F1.0
sg30
g5
sS'fraction_expenses_total_payments'
p332
F1.0
sS'fraction_deferred_income_total_payments'
p333
F1.0
sg33
g5
sS'fraction_exercised_stock_options_total_stock_value'
p334
F1.0
sg35
I87410
sS'fraction_director_fees_total_payments'
p335
F1.0
sg37
F0.0
sg38
I1030329
sS'fraction_salary_total_payments'
p336
F1.0
ssS'WALLS JR ROBERT H'
p337
(dp338
g3
I671
sg4
g5
sg6
I50936
sS'fraction_deferral_payments_total_payments'
p339
F1.0
sg8
I00
sg9
g5
sS'fraction_loan_advances_total_payments'
p340
F1.0
sg11
S'rob.walls@enron.com'
p341
sg13
I540751
sS'fraction_bonus_total_payments'
p342
F1.0
sg15
F0.02533532041728763
sg16
g5
sg17
I215
sg18
g5
sg19
I146
sg20
I2
sS'fraction_other_total_payments'
p343
F1.0
sS'fraction_restricted_stock_total_stock_value'
p344
F1.0
sg23
g5
sS'fraction_restricted_stock_deferred_total_stock_value'
p345
F1.0
sg25
I850000
sg26
I5898997
sg27
I17
sg28
I0
sS'fraction_long_term_incentive_total_payments'
p346
F1.0
sg30
I1552453
sS'fraction_expenses_total_payments'
p347
F1.0
sS'fraction_deferred_income_total_payments'
p348
F1.0
sg33
I357091
sS'fraction_exercised_stock_options_total_stock_value'
p349
F1.0
sg35
I1798780
sS'fraction_director_fees_total_payments'
p350
F1.0
sg37
F0.0
sg38
I4346544
sS'fraction_salary_total_payments'
p351
F1.0
ssS'KITCHEN LOUISE'
p352
(dp353
g3
I8305
sg4
g5
sg6
I5774
sS'fraction_deferral_payments_total_payments'
p354
F1.0
sg8
I00
sg9
g5
sS'fraction_loan_advances_total_payments'
p355
F1.0
sg11
S'louise.kitchen@enron.com'
p356
sg13
g5
sS'fraction_bonus_total_payments'
p357
F1.0
sg15
F0.030222757375075255
sg16
g5
sg17
I3669
sg18
g5
sg19
I1728
sg20
I93925
sS'fraction_other_total_payments'
p358
F1.0
sS'fraction_restricted_stock_total_stock_value'
p359
F1.0
sg23
g5
sS'fraction_restricted_stock_deferred_total_stock_value'
p360
F1.0
sg25
I3100000
sg26
I547143
sg27
I251
sg28
I194
sS'fraction_long_term_incentive_total_payments'
p361
F1.0
sg30
I466101
sS'fraction_expenses_total_payments'
p362
F1.0
sS'fraction_deferred_income_total_payments'
p363
F1.0
sg33
I271442
sS'fraction_exercised_stock_options_total_stock_value'
p364
F1.0
sg35
I3471141
sS'fraction_director_fees_total_payments'
p365
F1.0
sg37
F0.11226851851851852
sg38
I81042
sS'fraction_salary_total_payments'
p366
F1.0
ssS'CHAN RONNIE'
p367
(dp368
g3
g5
sg4
g5
sg6
g5
sS'fraction_deferral_payments_total_payments'
p369
F0.0
sg8
I00
sg9
I-98784
sS'fraction_loan_advances_total_payments'
p370
F0.0
sg11
g5
sg13
g5
sS'fraction_bonus_total_payments'
p371
F0.0
sg15
F0.0
sg16
I-32460
sg17
g5
sg18
g5
sg19
g5
sg20
g5
sS'fraction_other_total_payments'
p372
F0.0
sS'fraction_restricted_stock_total_stock_value'
p373
F0.0
sg23
I98784
sS'fraction_restricted_stock_deferred_total_stock_value'
p374
F0.0
sg25
g5
sg26
g5
sg27
g5
sg28
g5
sS'fraction_long_term_incentive_total_payments'
p375
F0.0
sg30
I32460
sS'fraction_expenses_total_payments'
p376
F0.0
sS'fraction_deferred_income_total_payments'
p377
F0.0
sg33
g5
sS'fraction_exercised_stock_options_total_stock_value'
p378
F0.0
sg35
g5
sS'fraction_director_fees_total_payments'
p379
F0.0
sg37
F0.0
sg38
g5
sS'fraction_salary_total_payments'
p380
F0.0
ssS'BELFER ROBERT'
p381
(dp382
g3
g5
sg4
I-102500
sg6
g5
sS'fraction_deferral_payments_total_payments'
p383
F1.0
sg8
I00
sg9
g5
sS'fraction_loan_advances_total_payments'
p384
F1.0
sg11
g5
sg13
g5
sS'fraction_bonus_total_payments'
p385
F1.0
sg15
F0.0
sg16
I44093
sg17
g5
sg18
g5
sg19
g5
sg20
g5
sS'fraction_other_total_payments'
p386
F1.0
sS'fraction_restricted_stock_total_stock_value'
p387
F1.0
sg23
I3285
sS'fraction_restricted_stock_deferred_total_stock_value'
p388
F1.0
sg25
g5
sg26
I-44093
sg27
g5
sg28
g5
sS'fraction_long_term_incentive_total_payments'
p389
F1.0
sg30
g5
sS'fraction_expenses_total_payments'
p390
F1.0
sS'fraction_deferred_income_total_payments'
p391
F1.0
sg33
g5
sS'fraction_exercised_stock_options_total_stock_value'
p392
F1.0
sg35
I102500
sS'fraction_director_fees_total_payments'
p393
F1.0
sg37
F0.0
sg38
I3285
sS'fraction_salary_total_payments'
p394
F1.0
ssS'SHANKMAN JEFFREY A'
p395
(dp396
g3
I3221
sg4
g5
sg6
I178979
sS'fraction_deferral_payments_total_payments'
p397
F1.0
sg8
I00
sg9
g5
sS'fraction_loan_advances_total_payments'
p398
F1.0
sg11
S'jeffrey.shankman@enron.com'
p399
sg13
I554422
sS'fraction_bonus_total_payments'
p400
F1.0
sg15
F0.029183483390251473
sg16
g5
sg17
I1730
sg18
g5
sg19
I2681
sg20
I1191
sS'fraction_other_total_payments'
p401
F1.0
sS'fraction_restricted_stock_total_stock_value'
p402
F1.0
sg23
g5
sS'fraction_restricted_stock_deferred_total_stock_value'
p403
F1.0
sg25
I2000000
sg26
I2072035
sg27
I94
sg28
I83
sS'fraction_long_term_incentive_total_payments'
p404
F1.0
sg30
I630137
sS'fraction_expenses_total_payments'
p405
F1.0
sS'fraction_deferred_income_total_payments'
p406
F1.0
sg33
I304110
sS'fraction_exercised_stock_options_total_stock_value'
p407
F1.0
sg35
I3038702
sS'fraction_director_fees_total_payments'
p408
F1.0
sg37
F0.030958597538232
sg38
I1441898
sS'fraction_salary_total_payments'
p409
F1.0
ssS'WODRASKA JOHN'
p410
(dp411
g3
g5
sg4
g5
sg6
g5
sS'fraction_deferral_payments_total_payments'
p412
F1.0
sg8
I00
sg9
g5
sS'fraction_loan_advances_total_payments'
p413
F1.0
sg11
S'john.wodraska@enron.com'
p414
sg13
g5
sS'fraction_bonus_total_payments'
p415
F1.0
sg15
F0.0
sg16
g5
sg17
g5
sg18
g5
sg19
g5
sg20
I189583
sS'fraction_other_total_payments'
p416
F1.0
sS'fraction_restricted_stock_total_stock_value'
p417
F0.0
sg23
g5
sS'fraction_restricted_stock_deferred_total_stock_value'
p418
F0.0
sg25
g5
sg26
g5
sg27
g5
sg28
g5
sS'fraction_long_term_incentive_total_payments'
p419
F1.0
sg30
g5
sS'fraction_expenses_total_payments'
p420
F1.0
sS'fraction_deferred_income_total_payments'
p421
F1.0
sg33
g5
sS'fraction_exercised_stock_options_total_stock_value'
p422
F0.0
sg35
I189583
sS'fraction_director_fees_total_payments'
p423
F1.0
sg37
F0.0
sg38
g5
sS'fraction_salary_total_payments'
p424
F1.0
ssS'BERGSIEKER RICHARD P'
p425
(dp426
g3
I383
sg4
g5
sg6
I59175
sS'fraction_deferral_payments_total_payments'
p427
F1.0
sg8
I00
sg9
I-485813
sS'fraction_loan_advances_total_payments'
p428
F1.0
sg11
S'rick.bergsieker@enron.com'
p429
sg13
I180250
sS'fraction_bonus_total_payments'
p430
F1.0
sg15
F0.010443864229765013
sg16
g5
sg17
I233
sg18
g5
sg19
I59
sg20
I427316
sS'fraction_other_total_payments'
p431
F1.0
sS'fraction_restricted_stock_total_stock_value'
p432
F1.0
sg23
g5
sS'fraction_restricted_stock_deferred_total_stock_value'
p433
F1.0
sg25
I250000
sg26
I659249
sg27
I4
sg28
I0
sS'fraction_long_term_incentive_total_payments'
p434
F1.0
sg30
I659249
sS'fraction_expenses_total_payments'
p435
F1.0
sS'fraction_deferred_income_total_payments'
p436
F1.0
sg33
I187922
sS'fraction_exercised_stock_options_total_stock_value'
p437
F1.0
sg35
I618850
sS'fraction_director_fees_total_payments'
p438
F1.0
sg37
F0.0
sg38
g5
sS'fraction_salary_total_payments'
p439
F1.0
ssS'URQUHART JOHN A'
p440
(dp441
g3
g5
sg4
g5
sg6
I228656
sS'fraction_deferral_payments_total_payments'
p442
F1.0
sg8
I00
sg9
I-36666
sS'fraction_loan_advances_total_payments'
p443
F1.0
sg11
g5
sg13
g5
sS'fraction_bonus_total_payments'
p444
F1.0
sg15
F0.0
sg16
g5
sg17
g5
sg18
g5
sg19
g5
sg20
g5
sS'fraction_other_total_payments'
p445
F1.0
sS'fraction_restricted_stock_total_stock_value'
p446
F0.0
sg23
I36666
sS'fraction_restricted_stock_deferred_total_stock_value'
p447
F0.0
sg25
g5
sg26
g5
sg27
g5
sg28
g5
sS'fraction_long_term_incentive_total_payments'
p448
F1.0
sg30
g5
sS'fraction_expenses_total_payments'
p449
F1.0
sS'fraction_deferred_income_total_payments'
p450
F1.0
sg33
g5
sS'fraction_exercised_stock_options_total_stock_value'
p451
F0.0
sg35
I228656
sS'fraction_director_fees_total_payments'
p452
F1.0
sg37
F0.0
sg38
g5
sS'fraction_salary_total_payments'
p453
F1.0
ssS'BIBI PHILIPPE A'
p454
(dp455
g3
I1607
sg4
g5
sg6
I38559
sS'fraction_deferral_payments_total_payments'
p456
F1.0
sg8
I00
sg9
g5
sS'fraction_loan_advances_total_payments'
p457
F1.0
sg11
S'philippe.bibi@enron.com'
p458
sg13
I369721
sS'fraction_bonus_total_payments'
p459
F1.0
sg15
F0.01431238332296204
sg16
g5
sg17
I1336
sg18
g5
sg19
I40
sg20
I425688
sS'fraction_other_total_payments'
p460
F1.0
sS'fraction_restricted_stock_total_stock_value'
p461
F1.0
sg23
g5
sS'fraction_restricted_stock_deferred_total_stock_value'
p462
F1.0
sg25
I1000000
sg26
I1843816
sg27
I23
sg28
I8
sS'fraction_long_term_incentive_total_payments'
p463
F1.0
sg30
I378082
sS'fraction_expenses_total_payments'
p464
F1.0
sS'fraction_deferred_income_total_payments'
p465
F1.0
sg33
I213625
sS'fraction_exercised_stock_options_total_stock_value'
p466
F1.0
sg35
I2047593
sS'fraction_director_fees_total_payments'
p467
F1.0
sg37
F0.2
sg38
I1465734
sS'fraction_salary_total_payments'
p468
F1.0
ssS'RIEKER PAULA H'
p469
(dp470
g3
I1328
sg4
I214678
sg6
I33271
sS'fraction_deferral_payments_total_payments'
p471
F1.0
sg8
I01
sg9
I-100000
sS'fraction_loan_advances_total_payments'
p472
F1.0
sg11
S'paula.rieker@enron.com'
p473
sg13
g5
sS'fraction_bonus_total_payments'
p474
F1.0
sg15
F0.02635542168674699
sg16
g5
sg17
I1258
sg18
g5
sg19
I82
sg20
I1950
sS'fraction_other_total_payments'
p475
F1.0
sS'fraction_restricted_stock_total_stock_value'
p476
F1.0
sg23
g5
sS'fraction_restricted_stock_deferred_total_stock_value'
p477
F1.0
sg25
I700000
sg26
I1918887
sg27
I35
sg28
I48
sS'fraction_long_term_incentive_total_payments'
p478
F1.0
sg30
I283649
sS'fraction_expenses_total_payments'
p479
F1.0
sS'fraction_deferred_income_total_payments'
p480
F1.0
sg33
I249201
sS'fraction_exercised_stock_options_total_stock_value'
p481
F1.0
sg35
I1099100
sS'fraction_director_fees_total_payments'
p482
F1.0
sg37
F0.5853658536585366
sg38
I1635238
sS'fraction_salary_total_payments'
p483
F1.0
ssS'WHALEY DAVID A'
p484
(dp485
g3
g5
sg4
g5
sg6
g5
sS'fraction_deferral_payments_total_payments'
p486
F0.0
sg8
I00
sg9
g5
sS'fraction_loan_advances_total_payments'
p487
F0.0
sg11
g5
sg13
g5
sS'fraction_bonus_total_payments'
p488
F0.0
sg15
F0.0
sg16
g5
sg17
g5
sg18
g5
sg19
g5
sg20
g5
sS'fraction_other_total_payments'
p489
F0.0
sS'fraction_restricted_stock_total_stock_value'
p490
F1.0
sg23
g5
sS'fraction_restricted_stock_deferred_total_stock_value'
p491
F1.0
sg25
g5
sg26
I98718
sg27
g5
sg28
g5
sS'fraction_long_term_incentive_total_payments'
p492
F0.0
sg30
g5
sS'fraction_expenses_total_payments'
p493
F0.0
sS'fraction_deferred_income_total_payments'
p494
F0.0
sg33
g5
sS'fraction_exercised_stock_options_total_stock_value'
p495
F1.0
sg35
g5
sS'fraction_director_fees_total_payments'
p496
F0.0
sg37
F0.0
sg38
I98718
sS'fraction_salary_total_payments'
p497
F0.0
ssS'BECK SALLY W'
p498
(dp499
g3
I7315
sg4
g5
sg6
I37172
sS'fraction_deferral_payments_total_payments'
p500
F1.0
sg8
I00
sg9
g5
sS'fraction_loan_advances_total_payments'
p501
F1.0
sg11
S'sally.beck@enron.com'
p502
sg13
g5
sS'fraction_bonus_total_payments'
p503
F1.0
sg15
F0.01968557758031442
sg16
g5
sg17
I2639
sg18
g5
sg19
I4343
sg20
I566
sS'fraction_other_total_payments'
p504
F1.0
sS'fraction_restricted_stock_total_stock_value'
p505
F1.0
sg23
g5
sS'fraction_restricted_stock_deferred_total_stock_value'
p506
F1.0
sg25
I700000
sg26
I126027
sg27
I144
sg28
I386
sS'fraction_long_term_incentive_total_payments'
p507
F1.0
sg30
I126027
sS'fraction_expenses_total_payments'
p508
F1.0
sS'fraction_deferred_income_total_payments'
p509
F1.0
sg33
I231330
sS'fraction_exercised_stock_options_total_stock_value'
p510
F1.0
sg35
I969068
sS'fraction_director_fees_total_payments'
p511
F1.0
sg37
F0.08887865530739121
sg38
g5
sS'fraction_salary_total_payments'
p512
F1.0
ssS'HAUG DAVID L'
p513
(dp514
g3
I573
sg4
g5
sg6
I475
sS'fraction_deferral_payments_total_payments'
p515
F1.0
sg8
I00
sg9
g5
sS'fraction_loan_advances_total_payments'
p516
F1.0
sg11
S'david.haug@enron.com'
p517
sg13
g5
sS'fraction_bonus_total_payments'
p518
F1.0
sg15
F0.006980802792321117
sg16
g5
sg17
I471
sg18
g5
sg19
I19
sg20
g5
sS'fraction_other_total_payments'
p519
F1.0
sS'fraction_restricted_stock_total_stock_value'
p520
F1.0
sg23
g5
sS'fraction_restricted_stock_deferred_total_stock_value'
p521
F1.0
sg25
g5
sg26
I2217299
sg27
I4
sg28
I7
sS'fraction_long_term_incentive_total_payments'
p522
F1.0
sg30
I2217299
sS'fraction_expenses_total_payments'
p523
F1.0
sS'fraction_deferred_income_total_payments'
p524
F1.0
sg33
g5
sS'fraction_exercised_stock_options_total_stock_value'
p525
F1.0
sg35
I475
sS'fraction_director_fees_total_payments'
p526
F1.0
sg37
F0.3684210526315789
sg38
g5
sS'fraction_salary_total_payments'
p527
F1.0
ssS'ECHOLS JOHN B'
p528
(dp529
g3
g5
sg4
g5
sg6
I21530
sS'fraction_deferral_payments_total_payments'
p530
F1.0
sg8
I00
sg9
g5
sS'fraction_loan_advances_total_payments'
p531
F1.0
sg11
S'john.echols@enron.com'
p532
sg13
I2234774
sS'fraction_bonus_total_payments'
p533
F1.0
sg15
F0.0
sg16
g5
sg17
g5
sg18
g5
sg19
g5
sg20
I53775
sS'fraction_other_total_payments'
p534
F1.0
sS'fraction_restricted_stock_total_stock_value'
p535
F1.0
sg23
g5
sS'fraction_restricted_stock_deferred_total_stock_value'
p536
F1.0
sg25
I200000
sg26
I1008941
sg27
g5
sg28
g5
sS'fraction_long_term_incentive_total_payments'
p537
F1.0
sg30
I407503
sS'fraction_expenses_total_payments'
p538
F1.0
sS'fraction_deferred_income_total_payments'
p539
F1.0
sg33
I182245
sS'fraction_exercised_stock_options_total_stock_value'
p540
F1.0
sg35
I2692324
sS'fraction_director_fees_total_payments'
p541
F1.0
sg37
F0.0
sg38
I601438
sS'fraction_salary_total_payments'
p542
F1.0
ssS'MENDELSOHN JOHN'
p543
(dp544
g3
g5
sg4
g5
sg6
I148
sS'fraction_deferral_payments_total_payments'
p545
F1.0
sg8
I00
sg9
I-103750
sS'fraction_loan_advances_total_payments'
p546
F1.0
sg11
g5
sg13
g5
sS'fraction_bonus_total_payments'
p547
F1.0
sg15
F0.0
sg16
g5
sg17
g5
sg18
g5
sg19
g5
sg20
g5
sS'fraction_other_total_payments'
p548
F1.0
sS'fraction_restricted_stock_total_stock_value'
p549
F0.0
sg23
I103750
sS'fraction_restricted_stock_deferred_total_stock_value'
p550
F0.0
sg25
g5
sg26
g5
sg27
g5
sg28
g5
sS'fraction_long_term_incentive_total_payments'
p551
F1.0
sg30
g5
sS'fraction_expenses_total_payments'
p552
F1.0
sS'fraction_deferred_income_total_payments'
p553
F1.0
sg33
g5
sS'fraction_exercised_stock_options_total_stock_value'
p554
F0.0
sg35
I148
sS'fraction_director_fees_total_payments'
p555
F1.0
sg37
F0.0
sg38
g5
sS'fraction_salary_total_payments'
p556
F1.0
ssS'HICKERSON GARY J'
p557
(dp558
g3
I1320
sg4
g5
sg6
I98849
sS'fraction_deferral_payments_total_payments'
p559
F1.0
sg8
I00
sg9
g5
sS'fraction_loan_advances_total_payments'
p560
F1.0
sg11
S'gary.hickerson@enron.com'
p561
sg13
I69223
sS'fraction_bonus_total_payments'
p562
F1.0
sg15
F0.030303030303030304
sg16
g5
sg17
I900
sg18
g5
sg19
I27
sg20
I1936
sS'fraction_other_total_payments'
p563
F1.0
sS'fraction_restricted_stock_total_stock_value'
p564
F1.0
sg23
g5
sS'fraction_restricted_stock_deferred_total_stock_value'
p565
F1.0
sg25
I1700000
sg26
I441096
sg27
I40
sg28
I1
sS'fraction_long_term_incentive_total_payments'
p566
F1.0
sg30
I441096
sS'fraction_expenses_total_payments'
p567
F1.0
sS'fraction_deferred_income_total_payments'
p568
F1.0
sg33
I211788
sS'fraction_exercised_stock_options_total_stock_value'
p569
F1.0
sg35
I2081796
sS'fraction_director_fees_total_payments'
p570
F1.0
sg37
F0.037037037037037035
sg38
g5
sS'fraction_salary_total_payments'
p571
F1.0
ssS'CLINE KENNETH W'
p572
(dp573
g3
g5
sg4
g5
sg6
g5
sS'fraction_deferral_payments_total_payments'
p574
F0.0
sg8
I00
sg9
g5
sS'fraction_loan_advances_total_payments'
p575
F0.0
sg11
g5
sg13
g5
sS'fraction_bonus_total_payments'
p576
F0.0
sg15
F0.0
sg16
I-472568
sg17
g5
sg18
g5
sg19
g5
sg20
g5
sS'fraction_other_total_payments'
p577
F0.0
sS'fraction_restricted_stock_total_stock_value'
p578
F1.0
sg23
g5
sS'fraction_restricted_stock_deferred_total_stock_value'
p579
F1.0
sg25
g5
sg26
I189518
sg27
g5
sg28
g5
sS'fraction_long_term_incentive_total_payments'
p580
F0.0
sg30
I662086
sS'fraction_expenses_total_payments'
p581
F0.0
sS'fraction_deferred_income_total_payments'
p582
F0.0
sg33
g5
sS'fraction_exercised_stock_options_total_stock_value'
p583
F1.0
sg35
g5
sS'fraction_director_fees_total_payments'
p584
F0.0
sg37
F0.0
sg38
g5
sS'fraction_salary_total_payments'
p585
F0.0
ssS'LEWIS RICHARD'
p586
(dp587
g3
I952
sg4
g5
sg6
g5
sS'fraction_deferral_payments_total_payments'
p588
F0.0
sg8
I00
sg9
g5
sS'fraction_loan_advances_total_payments'
p589
F0.0
sg11
S'richard.lewis@enron.com'
p590
sg13
g5
sS'fraction_bonus_total_payments'
p591
F0.0
sg15
F0.01050420168067227
sg16
g5
sg17
I739
sg18
g5
sg19
I26
sg20
g5
sS'fraction_other_total_payments'
p592
F0.0
sS'fraction_restricted_stock_total_stock_value'
p593
F1.0
sg23
g5
sS'fraction_restricted_stock_deferred_total_stock_value'
p594
F1.0
sg25
g5
sg26
I850477
sg27
I10
sg28
I0
sS'fraction_long_term_incentive_total_payments'
p595
F0.0
sg30
g5
sS'fraction_expenses_total_payments'
p596
F0.0
sS'fraction_deferred_income_total_payments'
p597
F0.0
sg33
g5
sS'fraction_exercised_stock_options_total_stock_value'
p598
F1.0
sg35
g5
sS'fraction_director_fees_total_payments'
p599
F0.0
sg37
F0.0
sg38
I850477
sS'fraction_salary_total_payments'
p600
F0.0
ssS'HAYES ROBERT E'
p601
(dp602
g3
I504
sg4
I7961
sg6
g5
sS'fraction_deferral_payments_total_payments'
p603
F1.0
sg8
I00
sg9
g5
sS'fraction_loan_advances_total_payments'
p604
F1.0
sg11
S'robert.hayes@enron.com'
p605
sg13
g5
sS'fraction_bonus_total_payments'
p606
F1.0
sg15
F0.031746031746031744
sg16
g5
sg17
I50
sg18
g5
sg19
I12
sg20
g5
sS'fraction_other_total_payments'
p607
F1.0
sS'fraction_restricted_stock_total_stock_value'
p608
F1.0
sg23
g5
sS'fraction_restricted_stock_deferred_total_stock_value'
p609
F1.0
sg25
g5
sg26
I151418
sg27
I16
sg28
I0
sS'fraction_long_term_incentive_total_payments'
p610
F1.0
sg30
I151418
sS'fraction_expenses_total_payments'
p611
F1.0
sS'fraction_deferred_income_total_payments'
p612
F1.0
sg33
g5
sS'fraction_exercised_stock_options_total_stock_value'
p613
F1.0
sg35
I7961
sS'fraction_director_fees_total_payments'
p614
F1.0
sg37
F0.0
sg38
g5
sS'fraction_salary_total_payments'
p615
F1.0
ssS'MCCARTY DANNY J'
p616
(dp617
g3
I1433
sg4
g5
sg6
g5
sS'fraction_deferral_payments_total_payments'
p618
F0.0
sg8
I00
sg9
g5
sS'fraction_loan_advances_total_payments'
p619
F0.0
sg11
S'danny.mccarty@enron.com'
p620
sg13
g5
sS'fraction_bonus_total_payments'
p621
F0.0
sg15
F0.017445917655268667
sg16
g5
sg17
I508
sg18
g5
sg19
I215
sg20
g5
sS'fraction_other_total_payments'
p622
F0.0
sS'fraction_restricted_stock_total_stock_value'
p623
F1.0
sg23
g5
sS'fraction_restricted_stock_deferred_total_stock_value'
p624
F1.0
sg25
g5
sg26
I758931
sg27
I25
sg28
I2
sS'fraction_long_term_incentive_total_payments'
p625
F0.0
sg30
I94556
sS'fraction_expenses_total_payments'
p626
F0.0
sS'fraction_deferred_income_total_payments'
p627
F0.0
sg33
g5
sS'fraction_exercised_stock_options_total_stock_value'
p628
F1.0
sg35
g5
sS'fraction_director_fees_total_payments'
p629
F0.0
sg37
F0.009302325581395349
sg38
I664375
sS'fraction_salary_total_payments'
p630
F0.0
ssS'KOPPER MICHAEL J'
p631
(dp632
g3
g5
sg4
g5
sg6
I118134
sS'fraction_deferral_payments_total_payments'
p633
F1.0
sg8
I01
sg9
g5
sS'fraction_loan_advances_total_payments'
p634
F1.0
sg11
S'michael.kopper@enron.com'
p635
sg13
I602671
sS'fraction_bonus_total_payments'
p636
F1.0
sg15
F0.0
sg16
g5
sg17
g5
sg18
g5
sg19
g5
sg20
I907502
sS'fraction_other_total_payments'
p637
F1.0
sS'fraction_restricted_stock_total_stock_value'
p638
F1.0
sg23
g5
sS'fraction_restricted_stock_deferred_total_stock_value'
p639
F1.0
sg25
I800000
sg26
I985032
sg27
g5
sg28
g5
sS'fraction_long_term_incentive_total_payments'
p640
F1.0
sg30
I985032
sS'fraction_expenses_total_payments'
p641
F1.0
sS'fraction_deferred_income_total_payments'
p642
F1.0
sg33
I224305
sS'fraction_exercised_stock_options_total_stock_value'
p643
F1.0
sg35
I2652612
sS'fraction_director_fees_total_payments'
p644
F1.0
sg37
F0.0
sg38
g5
sS'fraction_salary_total_payments'
p645
F1.0
ssS'LEFF DANIEL P'
p646
(dp647
g3
I2822
sg4
g5
sg6
g5
sS'fraction_deferral_payments_total_payments'
p648
F1.0
sg8
I00
sg9
g5
sS'fraction_loan_advances_total_payments'
p649
F1.0
sg11
S'dan.leff@enron.com'
p650
sg13
I1387399
sS'fraction_bonus_total_payments'
p651
F1.0
sg15
F0.02374202693125443
sg16
g5
sg17
I2672
sg18
g5
sg19
I63
sg20
I3083
sS'fraction_other_total_payments'
p652
F1.0
sS'fraction_restricted_stock_total_stock_value'
p653
F1.0
sg23
g5
sS'fraction_restricted_stock_deferred_total_stock_value'
p654
F1.0
sg25
I1000000
sg26
I360528
sg27
I67
sg28
I14
sS'fraction_long_term_incentive_total_payments'
p655
F1.0
sg30
I360528
sS'fraction_expenses_total_payments'
p656
F1.0
sS'fraction_deferred_income_total_payments'
p657
F1.0
sg33
I273746
sS'fraction_exercised_stock_options_total_stock_value'
p658
F1.0
sg35
I2664228
sS'fraction_director_fees_total_payments'
p659
F1.0
sg37
F0.2222222222222222
sg38
g5
sS'fraction_salary_total_payments'
p660
F1.0
ssS'LAVORATO JOHN J'
p661
(dp662
g3
I7259
sg4
g5
sg6
I49537
sS'fraction_deferral_payments_total_payments'
p663
F1.0
sg8
I00
sg9
g5
sS'fraction_loan_advances_total_payments'
p664
F1.0
sg11
S'john.lavorato@enron.com'
p665
sg13
I2035380
sS'fraction_bonus_total_payments'
p666
F1.0
sg15
F0.07273729163796666
sg16
g5
sg17
I3962
sg18
g5
sg19
I2585
sg20
I1552
sS'fraction_other_total_payments'
p667
F1.0
sS'fraction_restricted_stock_total_stock_value'
p668
F1.0
sg23
g5
sS'fraction_restricted_stock_deferred_total_stock_value'
p669
F1.0
sg25
I8000000
sg26
I5167144
sg27
I528
sg28
I411
sS'fraction_long_term_incentive_total_payments'
p670
F1.0
sg30
I1008149
sS'fraction_expenses_total_payments'
p671
F1.0
sS'fraction_deferred_income_total_payments'
p672
F1.0
sg33
I339288
sS'fraction_exercised_stock_options_total_stock_value'
p673
F1.0
sg35
I10425757
sS'fraction_director_fees_total_payments'
p674
F1.0
sg37
F0.15899419729206962
sg38
I4158995
sS'fraction_salary_total_payments'
p675
F1.0
ssS'BERBERIAN DAVID'
p676
(dp677
g3
g5
sg4
g5
sg6
I11892
sS'fraction_deferral_payments_total_payments'
p678
F1.0
sg8
I00
sg9
g5
sS'fraction_loan_advances_total_payments'
p679
F1.0
sg11
S'david.berberian@enron.com'
p680
sg13
g5
sS'fraction_bonus_total_payments'
p681
F1.0
sg15
F0.0
sg16
g5
sg17
g5
sg18
g5
sg19
g5
sg20
g5
sS'fraction_other_total_payments'
p682
F1.0
sS'fraction_restricted_stock_total_stock_value'
p683
F1.0
sg23
g5
sS'fraction_restricted_stock_deferred_total_stock_value'
p684
F1.0
sg25
g5
sg26
I2493616
sg27
g5
sg28
g5
sS'fraction_long_term_incentive_total_payments'
p685
F1.0
sg30
I869220
sS'fraction_expenses_total_payments'
p686
F1.0
sS'fraction_deferred_income_total_payments'
p687
F1.0
sg33
I216582
sS'fraction_exercised_stock_options_total_stock_value'
p688
F1.0
sg35
I228474
sS'fraction_director_fees_total_payments'
p689
F1.0
sg37
F0.0
sg38
I1624396
sS'fraction_salary_total_payments'
p690
F1.0
ssS'DETMERING TIMOTHY J'
p691
(dp692
g3
g5
sg4
I875307
sg6
I52255
sS'fraction_deferral_payments_total_payments'
p693
F1.0
sg8
I00
sg9
I-775241
sS'fraction_loan_advances_total_payments'
p694
F1.0
sg11
S'timothy.detmering@enron.com'
p695
sg13
I415657
sS'fraction_bonus_total_payments'
p696
F1.0
sg15
F0.0
sg16
I-315068
sg17
g5
sg18
g5
sg19
g5
sg20
I1105
sS'fraction_other_total_payments'
p697
F1.0
sS'fraction_restricted_stock_total_stock_value'
p698
F1.0
sg23
g5
sS'fraction_restricted_stock_deferred_total_stock_value'
p699
F1.0
sg25
I425000
sg26
I2027865
sg27
g5
sg28
g5
sS'fraction_long_term_incentive_total_payments'
p700
F1.0
sg30
I315068
sS'fraction_expenses_total_payments'
p701
F1.0
sS'fraction_deferred_income_total_payments'
p702
F1.0
sg33
I210500
sS'fraction_exercised_stock_options_total_stock_value'
p703
F1.0
sg35
I1204583
sS'fraction_director_fees_total_payments'
p704
F1.0
sg37
F0.0
sg38
I2027865
sS'fraction_salary_total_payments'
p705
F1.0
ssS'WAKEHAM JOHN'
p706
(dp707
g3
g5
sg4
g5
sg6
I103773
sS'fraction_deferral_payments_total_payments'
p708
F1.0
sg8
I00
sg9
g5
sS'fraction_loan_advances_total_payments'
p709
F1.0
sg11
g5
sg13
g5
sS'fraction_bonus_total_payments'
p710
F1.0
sg15
F0.0
sg16
g5
sg17
g5
sg18
g5
sg19
g5
sg20
g5
sS'fraction_other_total_payments'
p711
F1.0
sS'fraction_restricted_stock_total_stock_value'
p712
F0.0
sg23
I109298
sS'fraction_restricted_stock_deferred_total_stock_value'
p713
F0.0
sg25
g5
sg26
g5
sg27
g5
sg28
g5
sS'fraction_long_term_incentive_total_payments'
p714
F1.0
sg30
g5
sS'fraction_expenses_total_payments'
p715
F1.0
sS'fraction_deferred_income_total_payments'
p716
F1.0
sg33
g5
sS'fraction_exercised_stock_options_total_stock_value'
p717
F0.0
sg35
I213071
sS'fraction_director_fees_total_payments'
p718
F1.0
sg37
F0.0
sg38
g5
sS'fraction_salary_total_payments'
p719
F1.0
ssS'POWERS WILLIAM'
p720
(dp721
g3
I653
sg4
g5
sg6
g5
sS'fraction_deferral_payments_total_payments'
p722
F0.0
sg8
I00
sg9
I-17500
sS'fraction_loan_advances_total_payments'
p723
F0.0
sg11
S'ken.powers@enron.com'
p724
sg13
g5
sS'fraction_bonus_total_payments'
p725
F0.0
sg15
F0.0
sg16
g5
sg17
I12
sg18
g5
sg19
I26
sg20
g5
sS'fraction_other_total_payments'
p726
F0.0
sS'fraction_restricted_stock_total_stock_value'
p727
F0.0
sg23
I17500
sS'fraction_restricted_stock_deferred_total_stock_value'
p728
F0.0
sg25
g5
sg26
g5
sg27
I0
sg28
I0
sS'fraction_long_term_incentive_total_payments'
p729
F0.0
sg30
g5
sS'fraction_expenses_total_payments'
p730
F0.0
sS'fraction_deferred_income_total_payments'
p731
F0.0
sg33
g5
sS'fraction_exercised_stock_options_total_stock_value'
p732
F0.0
sg35
g5
sS'fraction_director_fees_total_payments'
p733
F0.0
sg37
F0.0
sg38
g5
sS'fraction_salary_total_payments'
p734
F0.0
ssS'GOLD JOSEPH'
p735
(dp736
g3
g5
sg4
g5
sg6
g5
sS'fraction_deferral_payments_total_payments'
p737
F1.0
sg8
I00
sg9
g5
sS'fraction_loan_advances_total_payments'
p738
F1.0
sg11
S'joe.gold@enron.com'
p739
sg13
I304805
sS'fraction_bonus_total_payments'
p740
F1.0
sg15
F0.0
sg16
g5
sg17
g5
sg18
g5
sg19
g5
sg20
I819288
sS'fraction_other_total_payments'
p741
F1.0
sS'fraction_restricted_stock_total_stock_value'
p742
F1.0
sg23
g5
sS'fraction_restricted_stock_deferred_total_stock_value'
p743
F1.0
sg25
I750000
sg26
I877611
sg27
g5
sg28
g5
sS'fraction_long_term_incentive_total_payments'
p744
F1.0
sg30
I441096
sS'fraction_expenses_total_payments'
p745
F1.0
sS'fraction_deferred_income_total_payments'
p746
F1.0
sg33
I272880
sS'fraction_exercised_stock_options_total_stock_value'
p747
F1.0
sg35
I2146973
sS'fraction_director_fees_total_payments'
p748
F1.0
sg37
F0.0
sg38
I436515
sS'fraction_salary_total_payments'
p749
F1.0
ssS'BANNANTINE JAMES M'
p750
(dp751
g3
I566
sg4
g5
sg6
I56301
sS'fraction_deferral_payments_total_payments'
p752
F1.0
sg8
I00
sg9
I-5104
sS'fraction_loan_advances_total_payments'
p753
F1.0
sg11
S'james.bannantine@enron.com'
p754
sg13
g5
sS'fraction_bonus_total_payments'
p755
F1.0
sg15
F0.06890459363957598
sg16
I-560222
sg17
I465
sg18
g5
sg19
I29
sg20
I864523
sS'fraction_other_total_payments'
p756
F1.0
sS'fraction_restricted_stock_total_stock_value'
p757
F1.0
sg23
g5
sS'fraction_restricted_stock_deferred_total_stock_value'
p758
F1.0
sg25
g5
sg26
I5243487
sg27
I39
sg28
I0
sS'fraction_long_term_incentive_total_payments'
p759
F1.0
sg30
I1757552
sS'fraction_expenses_total_payments'
p760
F1.0
sS'fraction_deferred_income_total_payments'
p761
F1.0
sg33
I477
sS'fraction_exercised_stock_options_total_stock_value'
p762
F1.0
sg35
I916197
sS'fraction_director_fees_total_payments'
p763
F1.0
sg37
F0.0
sg38
I4046157
sS'fraction_salary_total_payments'
p764
F1.0
ssS'DUNCAN JOHN H'
p765
(dp766
g3
g5
sg4
g5
sg6
g5
sS'fraction_deferral_payments_total_payments'
p767
F1.0
sg8
I00
sg9
I-25000
sS'fraction_loan_advances_total_payments'
p768
F1.0
sg11
g5
sg13
g5
sS'fraction_bonus_total_payments'
p769
F1.0
sg15
F0.0
sg16
g5
sg17
g5
sg18
g5
sg19
g5
sg20
g5
sS'fraction_other_total_payments'
p770
F1.0
sS'fraction_restricted_stock_total_stock_value'
p771
F1.0
sg23
I102492
sS'fraction_restricted_stock_deferred_total_stock_value'
p772
F1.0
sg25
g5
sg26
I371750
sg27
g5
sg28
g5
sS'fraction_long_term_incentive_total_payments'
p773
F1.0
sg30
g5
sS'fraction_expenses_total_payments'
p774
F1.0
sS'fraction_deferred_income_total_payments'
p775
F1.0
sg33
g5
sS'fraction_exercised_stock_options_total_stock_value'
p776
F1.0
sg35
I77492
sS'fraction_director_fees_total_payments'
p777
F1.0
sg37
F0.0
sg38
I371750
sS'fraction_salary_total_payments'
p778
F1.0
ssS'SHAPIRO RICHARD S'
p779
(dp780
g3
I15149
sg4
g5
sg6
I137767
sS'fraction_deferral_payments_total_payments'
p781
F1.0
sg8
I00
sg9
g5
sS'fraction_loan_advances_total_payments'
p782
F1.0
sg11
S'richard.shapiro@enron.com'
p783
sg13
g5
sS'fraction_bonus_total_payments'
p784
F1.0
sg15
F0.0048848108786058485
sg16
g5
sg17
I4527
sg18
g5
sg19
I1215
sg20
I705
sS'fraction_other_total_payments'
p785
F1.0
sS'fraction_restricted_stock_total_stock_value'
p786
F1.0
sg23
g5
sS'fraction_restricted_stock_deferred_total_stock_value'
p787
F1.0
sg25
I650000
sg26
I987001
sg27
I74
sg28
I65
sS'fraction_long_term_incentive_total_payments'
p788
F1.0
sg30
I379164
sS'fraction_expenses_total_payments'
p789
F1.0
sS'fraction_deferred_income_total_payments'
p790
F1.0
sg33
I269076
sS'fraction_exercised_stock_options_total_stock_value'
p791
F1.0
sg35
I1057548
sS'fraction_director_fees_total_payments'
p792
F1.0
sg37
F0.053497942386831275
sg38
I607837
sS'fraction_salary_total_payments'
p793
F1.0
ssS'SHERRIFF JOHN R'
p794
(dp795
g3
I3187
sg4
g5
sg6
g5
sS'fraction_deferral_payments_total_payments'
p796
F1.0
sg8
I00
sg9
g5
sS'fraction_loan_advances_total_payments'
p797
F1.0
sg11
S'john.sherriff@enron.com'
p798
sg13
I554422
sS'fraction_bonus_total_payments'
p799
F1.0
sg15
F0.008785691873235017
sg16
g5
sg17
I2103
sg18
g5
sg19
I92
sg20
I1852186
sS'fraction_other_total_payments'
p800
F1.0
sS'fraction_restricted_stock_total_stock_value'
p801
F1.0
sg23
g5
sS'fraction_restricted_stock_deferred_total_stock_value'
p802
F1.0
sg25
I1500000
sg26
I3128982
sg27
I28
sg28
I23
sS'fraction_long_term_incentive_total_payments'
p803
F1.0
sg30
I1293424
sS'fraction_expenses_total_payments'
p804
F1.0
sS'fraction_deferred_income_total_payments'
p805
F1.0
sg33
I428780
sS'fraction_exercised_stock_options_total_stock_value'
p806
F1.0
sg35
I4335388
sS'fraction_director_fees_total_payments'
p807
F1.0
sg37
F0.25
sg38
I1835558
sS'fraction_salary_total_payments'
p808
F1.0
ssS'SHELBY REX'
p809
(dp810
g3
I225
sg4
g5
sg6
I22884
sS'fraction_deferral_payments_total_payments'
p811
F1.0
sg8
I01
sg9
I-4167
sS'fraction_loan_advances_total_payments'
p812
F1.0
sg11
S'rex.shelby@enron.com'
p813
sg13
g5
sS'fraction_bonus_total_payments'
p814
F1.0
sg15
F0.057777777777777775
sg16
g5
sg17
I91
sg18
g5
sg19
I39
sg20
I1573324
sS'fraction_other_total_payments'
p815
F1.0
sS'fraction_restricted_stock_total_stock_value'
p816
F1.0
sg23
g5
sS'fraction_restricted_stock_deferred_total_stock_value'
p817
F1.0
sg25
I200000
sg26
I2493616
sg27
I13
sg28
I14
sS'fraction_long_term_incentive_total_payments'
p818
F1.0
sg30
I869220
sS'fraction_expenses_total_payments'
p819
F1.0
sS'fraction_deferred_income_total_payments'
p820
F1.0
sg33
I211844
sS'fraction_exercised_stock_options_total_stock_value'
p821
F1.0
sg35
I2003885
sS'fraction_director_fees_total_payments'
p822
F1.0
sg37
F0.358974358974359
sg38
I1624396
sS'fraction_salary_total_payments'
p823
F1.0
ssS'LEMAISTRE CHARLES'
p824
(dp825
g3
g5
sg4
g5
sg6
g5
sS'fraction_deferral_payments_total_payments'
p826
F1.0
sg8
I00
sg9
I-25000
sS'fraction_loan_advances_total_payments'
p827
F1.0
sg11
g5
sg13
g5
sS'fraction_bonus_total_payments'
p828
F1.0
sg15
F0.0
sg16
g5
sg17
g5
sg18
g5
sg19
g5
sg20
g5
sS'fraction_other_total_payments'
p829
F1.0
sS'fraction_restricted_stock_total_stock_value'
p830
F1.0
sg23
I112492
sS'fraction_restricted_stock_deferred_total_stock_value'
p831
F1.0
sg25
g5
sg26
I412878
sg27
g5
sg28
g5
sS'fraction_long_term_incentive_total_payments'
p832
F1.0
sg30
g5
sS'fraction_expenses_total_payments'
p833
F1.0
sS'fraction_deferred_income_total_payments'
p834
F1.0
sg33
g5
sS'fraction_exercised_stock_options_total_stock_value'
p835
F1.0
sg35
I87492
sS'fraction_director_fees_total_payments'
p836
F1.0
sg37
F0.0
sg38
I412878
sS'fraction_salary_total_payments'
p837
F1.0
ssS'DEFFNER JOSEPH M'
p838
(dp839
g3
I714
sg4
g5
sg6
I41626
sS'fraction_deferral_payments_total_payments'
p840
F1.0
sg8
I00
sg9
g5
sS'fraction_loan_advances_total_payments'
p841
F1.0
sg11
S'joseph.deffner@enron.com'
p842
sg13
I335349
sS'fraction_bonus_total_payments'
p843
F1.0
sg15
F0.16106442577030813
sg16
g5
sg17
I552
sg18
g5
sg19
I74
sg20
I25553
sS'fraction_other_total_payments'
p844
F1.0
sS'fraction_restricted_stock_total_stock_value'
p845
F1.0
sg23
g5
sS'fraction_restricted_stock_deferred_total_stock_value'
p846
F1.0
sg25
I600000
sg26
I159211
sg27
I115
sg28
I4
sS'fraction_long_term_incentive_total_payments'
p847
F1.0
sg30
I141833
sS'fraction_expenses_total_payments'
p848
F1.0
sS'fraction_deferred_income_total_payments'
p849
F1.0
sg33
I206121
sS'fraction_exercised_stock_options_total_stock_value'
p850
F1.0
sg35
I1208649
sS'fraction_director_fees_total_payments'
p851
F1.0
sg37
F0.05405405405405406
sg38
I17378
sS'fraction_salary_total_payments'
p852
F1.0
ssS'KISHKILL JOSEPH G'
p853
(dp854
g3
g5
sg4
g5
sg6
I116335
sS'fraction_deferral_payments_total_payments'
p855
F1.0
sg8
I00
sg9
I-51042
sS'fraction_loan_advances_total_payments'
p856
F1.0
sg11
S'joe.kishkill@enron.com'
p857
sg13
g5
sS'fraction_bonus_total_payments'
p858
F1.0
sg15
F0.0
sg16
g5
sg17
g5
sg18
g5
sg19
g5
sg20
I465357
sS'fraction_other_total_payments'
p859
F1.0
sS'fraction_restricted_stock_total_stock_value'
p860
F1.0
sg23
g5
sS'fraction_restricted_stock_deferred_total_stock_value'
p861
F1.0
sg25
g5
sg26
I1034346
sg27
g5
sg28
g5
sS'fraction_long_term_incentive_total_payments'
p862
F1.0
sg30
I1034346
sS'fraction_expenses_total_payments'
p863
F1.0
sS'fraction_deferred_income_total_payments'
p864
F1.0
sg33
I174246
sS'fraction_exercised_stock_options_total_stock_value'
p865
F1.0
sg35
I704896
sS'fraction_director_fees_total_payments'
p866
F1.0
sg37
F0.0
sg38
g5
sS'fraction_salary_total_payments'
p867
F1.0
ssS'WHALLEY LAWRENCE G'
p868
(dp869
g3
I6019
sg4
g5
sg6
I57838
sS'fraction_deferral_payments_total_payments'
p870
F1.0
sg8
I00
sg9
g5
sS'fraction_loan_advances_total_payments'
p871
F1.0
sg11
S'greg.whalley@enron.com'
p872
sg13
I808346
sS'fraction_bonus_total_payments'
p873
F1.0
sg15
F0.03090214321315833
sg16
g5
sg17
I3920
sg18
g5
sg19
I556
sg20
I301026
sS'fraction_other_total_payments'
p874
F1.0
sS'fraction_restricted_stock_total_stock_value'
p875
F1.0
sg23
g5
sS'fraction_restricted_stock_deferred_total_stock_value'
p876
F1.0
sg25
I3000000
sg26
I6079137
sg27
I186
sg28
I24
sS'fraction_long_term_incentive_total_payments'
p877
F1.0
sg30
I2796177
sS'fraction_expenses_total_payments'
p878
F1.0
sS'fraction_deferred_income_total_payments'
p879
F1.0
sg33
I510364
sS'fraction_exercised_stock_options_total_stock_value'
p880
F1.0
sg35
I4677574
sS'fraction_director_fees_total_payments'
p881
F1.0
sg37
F0.04316546762589928
sg38
I3282960
sS'fraction_salary_total_payments'
p882
F1.0
ssS'MCCONNELL MICHAEL S'
p883
(dp884
g3
I3329
sg4
g5
sg6
I81364
sS'fraction_deferral_payments_total_payments'
p885
F1.0
sg8
I00
sg9
g5
sS'fraction_loan_advances_total_payments'
p886
F1.0
sg11
S'mike.mcconnell@enron.com'
p887
sg13
I554422
sS'fraction_bonus_total_payments'
p888
F1.0
sg15
F0.02763592670471613
sg16
g5
sg17
I2189
sg18
g5
sg19
I2742
sg20
I540
sS'fraction_other_total_payments'
p889
F1.0
sS'fraction_restricted_stock_total_stock_value'
p890
F1.0
sg23
g5
sS'fraction_restricted_stock_deferred_total_stock_value'
p891
F1.0
sg25
I1100000
sg26
I3101279
sg27
I92
sg28
I194
sS'fraction_long_term_incentive_total_payments'
p892
F1.0
sg30
I1478269
sS'fraction_expenses_total_payments'
p893
F1.0
sS'fraction_deferred_income_total_payments'
p894
F1.0
sg33
I365038
sS'fraction_exercised_stock_options_total_stock_value'
p895
F1.0
sg35
I2101364
sS'fraction_director_fees_total_payments'
p896
F1.0
sg37
F0.07075127644055434
sg38
I1623010
sS'fraction_salary_total_payments'
p897
F1.0
ssS'PIRO JIM'
p898
(dp899
g3
I58
sg4
g5
sg6
g5
sS'fraction_deferral_payments_total_payments'
p900
F0.0
sg8
I00
sg9
g5
sS'fraction_loan_advances_total_payments'
p901
F0.0
sg11
S'jim.piro@enron.com'
p902
sg13
g5
sS'fraction_bonus_total_payments'
p903
F0.0
sg15
F0.0
sg16
g5
sg17
I3
sg18
g5
sg19
I16
sg20
g5
sS'fraction_other_total_payments'
p904
F0.0
sS'fraction_restricted_stock_total_stock_value'
p905
F1.0
sg23
g5
sS'fraction_restricted_stock_deferred_total_stock_value'
p906
F1.0
sg25
g5
sg26
I47304
sg27
I0
sg28
I1
sS'fraction_long_term_incentive_total_payments'
p907
F0.0
sg30
I47304
sS'fraction_expenses_total_payments'
p908
F0.0
sS'fraction_deferred_income_total_payments'
p909
F0.0
sg33
g5
sS'fraction_exercised_stock_options_total_stock_value'
p910
F1.0
sg35
g5
sS'fraction_director_fees_total_payments'
p911
F0.0
sg37
F0.0625
sg38
g5
sS'fraction_salary_total_payments'
p912
F0.0
ssS'DELAINEY DAVID W'
p913
(dp914
g3
I3093
sg4
g5
sg6
I86174
sS'fraction_deferral_payments_total_payments'
p915
F1.0
sg8
I01
sg9
g5
sS'fraction_loan_advances_total_payments'
p916
F1.0
sg11
S'david.delainey@enron.com'
p917
sg13
I1294981
sS'fraction_bonus_total_payments'
p918
F1.0
sg15
F0.02133850630455868
sg16
g5
sg17
I2097
sg18
g5
sg19
I3069
sg20
I1661
sS'fraction_other_total_payments'
p919
F1.0
sS'fraction_restricted_stock_total_stock_value'
p920
F1.0
sg23
g5
sS'fraction_restricted_stock_deferred_total_stock_value'
p921
F1.0
sg25
I3000000
sg26
I3614261
sg27
I66
sg28
I609
sS'fraction_long_term_incentive_total_payments'
p922
F1.0
sg30
I1323148
sS'fraction_expenses_total_payments'
p923
F1.0
sS'fraction_deferred_income_total_payments'
p924
F1.0
sg33
I365163
sS'fraction_exercised_stock_options_total_stock_value'
p925
F1.0
sg35
I4747979
sS'fraction_director_fees_total_payments'
p926
F1.0
sg37
F0.198435972629521
sg38
I2291113
sS'fraction_salary_total_payments'
p927
F1.0
ssS'SULLIVAN-SHAKLOVITZ COLLEEN'
p928
(dp929
g3
g5
sg4
I181993
sg6
g5
sS'fraction_deferral_payments_total_payments'
p930
F1.0
sg8
I00
sg9
g5
sS'fraction_loan_advances_total_payments'
p931
F1.0
sg11
g5
sg13
I554422
sS'fraction_bonus_total_payments'
p932
F1.0
sg15
F0.0
sg16
g5
sg17
g5
sg18
g5
sg19
g5
sg20
I162
sS'fraction_other_total_payments'
p933
F1.0
sS'fraction_restricted_stock_total_stock_value'
p934
F1.0
sg23
g5
sS'fraction_restricted_stock_deferred_total_stock_value'
p935
F1.0
sg25
I100000
sg26
I1362375
sg27
g5
sg28
g5
sS'fraction_long_term_incentive_total_payments'
p936
F1.0
sg30
g5
sS'fraction_expenses_total_payments'
p937
F1.0
sS'fraction_deferred_income_total_payments'
p938
F1.0
sg33
I162779
sS'fraction_exercised_stock_options_total_stock_value'
p939
F1.0
sg35
I999356
sS'fraction_director_fees_total_payments'
p940
F1.0
sg37
F0.0
sg38
I1362375
sS'fraction_salary_total_payments'
p941
F1.0
ssS'WROBEL BRUCE'
p942
(dp943
g3
g5
sg4
g5
sg6
g5
sS'fraction_deferral_payments_total_payments'
p944
F0.0
sg8
I00
sg9
g5
sS'fraction_loan_advances_total_payments'
p945
F0.0
sg11
g5
sg13
g5
sS'fraction_bonus_total_payments'
p946
F0.0
sg15
F0.0
sg16
g5
sg17
g5
sg18
g5
sg19
g5
sg20
g5
sS'fraction_other_total_payments'
p947
F0.0
sS'fraction_restricted_stock_total_stock_value'
p948
F1.0
sg23
g5
sS'fraction_restricted_stock_deferred_total_stock_value'
p949
F1.0
sg25
g5
sg26
I139130
sg27
g5
sg28
g5
sS'fraction_long_term_incentive_total_payments'
p950
F0.0
sg30
g5
sS'fraction_expenses_total_payments'
p951
F0.0
sS'fraction_deferred_income_total_payments'
p952
F0.0
sg33
g5
sS'fraction_exercised_stock_options_total_stock_value'
p953
F1.0
sg35
g5
sS'fraction_director_fees_total_payments'
p954
F0.0
sg37
F0.0
sg38
I139130
sS'fraction_salary_total_payments'
p955
F0.0
ssS'LINDHOLM TOD A'
p956
(dp957
g3
g5
sg4
I204075
sg6
I57727
sS'fraction_deferral_payments_total_payments'
p958
F1.0
sg8
I00
sg9
g5
sS'fraction_loan_advances_total_payments'
p959
F1.0
sg11
S'tod.lindholm@enron.com'
p960
sg13
I175000
sS'fraction_bonus_total_payments'
p961
F1.0
sg15
F0.0
sg16
g5
sg17
g5
sg18
g5
sg19
g5
sg20
I2630
sS'fraction_other_total_payments'
p962
F1.0
sS'fraction_restricted_stock_total_stock_value'
p963
F1.0
sg23
g5
sS'fraction_restricted_stock_deferred_total_stock_value'
p964
F1.0
sg25
I200000
sg26
I3064208
sg27
g5
sg28
g5
sS'fraction_long_term_incentive_total_payments'
p965
F1.0
sg30
I514847
sS'fraction_expenses_total_payments'
p966
F1.0
sS'fraction_deferred_income_total_payments'
p967
F1.0
sg33
I236457
sS'fraction_exercised_stock_options_total_stock_value'
p968
F1.0
sg35
I875889
sS'fraction_director_fees_total_payments'
p969
F1.0
sg37
F0.0
sg38
I2549361
sS'fraction_salary_total_payments'
p970
F1.0
ssS'MEYER JEROME J'
p971
(dp972
g3
g5
sg4
g5
sg6
I2151
sS'fraction_deferral_payments_total_payments'
p973
F1.0
sg8
I00
sg9
I-38346
sS'fraction_loan_advances_total_payments'
p974
F1.0
sg11
g5
sg13
g5
sS'fraction_bonus_total_payments'
p975
F1.0
sg15
F0.0
sg16
g5
sg17
g5
sg18
g5
sg19
g5
sg20
g5
sS'fraction_other_total_payments'
p976
F1.0
sS'fraction_restricted_stock_total_stock_value'
p977
F0.0
sg23
I38346
sS'fraction_restricted_stock_deferred_total_stock_value'
p978
F0.0
sg25
g5
sg26
g5
sg27
g5
sg28
g5
sS'fraction_long_term_incentive_total_payments'
p979
F1.0
sg30
g5
sS'fraction_expenses_total_payments'
p980
F1.0
sS'fraction_deferred_income_total_payments'
p981
F1.0
sg33
g5
sS'fraction_exercised_stock_options_total_stock_value'
p982
F0.0
sg35
I2151
sS'fraction_director_fees_total_payments'
p983
F1.0
sg37
F0.0
sg38
g5
sS'fraction_salary_total_payments'
p984
F1.0
ssS'LAY KENNETH L'
p985
(dp986
g3
I4273
sg4
I202911
sg6
I99832
sS'fraction_deferral_payments_total_payments'
p987
F1.0
sg8
I01
sg9
I-300000
sS'fraction_loan_advances_total_payments'
p988
F1.0
sg11
S'kenneth.lay@enron.com'
p989
sg13
I3600000
sS'fraction_bonus_total_payments'
p990
F1.0
sg15
F0.028785396676807865
sg16
g5
sg17
I2411
sg18
I81525000
sg19
I36
sg20
I10359729
sS'fraction_other_total_payments'
p991
F1.0
sS'fraction_restricted_stock_total_stock_value'
p992
F1.0
sg23
g5
sS'fraction_restricted_stock_deferred_total_stock_value'
p993
F1.0
sg25
I7000000
sg26
I49110078
sg27
I123
sg28
I16
sS'fraction_long_term_incentive_total_payments'
p994
F1.0
sg30
I14761694
sS'fraction_expenses_total_payments'
p995
F1.0
sS'fraction_deferred_income_total_payments'
p996
F1.0
sg33
I1072321
sS'fraction_exercised_stock_options_total_stock_value'
p997
F1.0
sg35
I103559793
sS'fraction_director_fees_total_payments'
p998
F1.0
sg37
F0.4444444444444444
sg38
I34348384
sS'fraction_salary_total_payments'
p999
F1.0
ssS'BUTTS ROBERT H'
p1000
(dp1001
g3
g5
sg4
g5
sg6
I9410
sS'fraction_deferral_payments_total_payments'
p1002
F1.0
sg8
I00
sg9
I-75000
sS'fraction_loan_advances_total_payments'
p1003
F1.0
sg11
S'bob.butts@enron.com'
p1004
sg13
I175000
sS'fraction_bonus_total_payments'
p1005
F1.0
sg15
F0.0
sg16
g5
sg17
g5
sg18
g5
sg19
g5
sg20
I150656
sS'fraction_other_total_payments'
p1006
F1.0
sS'fraction_restricted_stock_total_stock_value'
p1007
F1.0
sg23
g5
sS'fraction_restricted_stock_deferred_total_stock_value'
p1008
F1.0
sg25
I750000
sg26
I417619
sg27
g5
sg28
g5
sS'fraction_long_term_incentive_total_payments'
p1009
F1.0
sg30
I417619
sS'fraction_expenses_total_payments'
p1010
F1.0
sS'fraction_deferred_income_total_payments'
p1011
F1.0
sg33
I261516
sS'fraction_exercised_stock_options_total_stock_value'
p1012
F1.0
sg35
I1271582
sS'fraction_director_fees_total_payments'
p1013
F1.0
sg37
F0.0
sg38
g5
sS'fraction_salary_total_payments'
p1014
F1.0
ssS'OLSON CINDY K'
p1015
(dp1016
g3
I1184
sg4
I77716
sg6
I63791
sS'fraction_deferral_payments_total_payments'
p1017
F1.0
sg8
I00
sg9
g5
sS'fraction_loan_advances_total_payments'
p1018
F1.0
sg11
S'cindy.olson@enron.com'
p1019
sg13
I100000
sS'fraction_bonus_total_payments'
p1020
F1.0
sg15
F0.016891891891891893
sg16
g5
sg17
I856
sg18
g5
sg19
I52
sg20
I972
sS'fraction_other_total_payments'
p1021
F1.0
sS'fraction_restricted_stock_total_stock_value'
p1022
F1.0
sg23
g5
sS'fraction_restricted_stock_deferred_total_stock_value'
p1023
F1.0
sg25
I750000
sg26
I2606763
sg27
I20
sg28
I15
sS'fraction_long_term_incentive_total_payments'
p1024
F1.0
sg30
I969729
sS'fraction_expenses_total_payments'
p1025
F1.0
sS'fraction_deferred_income_total_payments'
p1026
F1.0
sg33
I329078
sS'fraction_exercised_stock_options_total_stock_value'
p1027
F1.0
sg35
I1321557
sS'fraction_director_fees_total_payments'
p1028
F1.0
sg37
F0.28846153846153844
sg38
I1637034
sS'fraction_salary_total_payments'
p1029
F1.0
ssS'MCDONALD REBECCA'
p1030
(dp1031
g3
I894
sg4
g5
sg6
g5
sS'fraction_deferral_payments_total_payments'
p1032
F0.0
sg8
I00
sg9
g5
sS'fraction_loan_advances_total_payments'
p1033
F0.0
sg11
S'rebecca.mcdonald@enron.com'
p1034
sg13
g5
sS'fraction_bonus_total_payments'
p1035
F0.0
sg15
F0.06040268456375839
sg16
g5
sg17
I720
sg18
g5
sg19
I13
sg20
g5
sS'fraction_other_total_payments'
p1036
F0.0
sS'fraction_restricted_stock_total_stock_value'
p1037
F1.0
sg23
g5
sS'fraction_restricted_stock_deferred_total_stock_value'
p1038
F1.0
sg25
g5
sg26
I1691366
sg27
I54
sg28
I1
sS'fraction_long_term_incentive_total_payments'
p1039
F0.0
sg30
I934065
sS'fraction_expenses_total_payments'
p1040
F0.0
sS'fraction_deferred_income_total_payments'
p1041
F0.0
sg33
g5
sS'fraction_exercised_stock_options_total_stock_value'
p1042
F1.0
sg35
g5
sS'fraction_director_fees_total_payments'
p1043
F0.0
sg37
F0.07692307692307693
sg38
I757301
sS'fraction_salary_total_payments'
p1044
F0.0
ssS'CUMBERLAND MICHAEL S'
p1045
(dp1046
g3
g5
sg4
g5
sg6
I22344
sS'fraction_deferral_payments_total_payments'
p1047
F1.0
sg8
I00
sg9
g5
sS'fraction_loan_advances_total_payments'
p1048
F1.0
sg11
g5
sg13
I275000
sS'fraction_bonus_total_payments'
p1049
F1.0
sg15
F0.0
sg16
g5
sg17
g5
sg18
g5
sg19
g5
sg20
I713
sS'fraction_other_total_payments'
p1050
F1.0
sS'fraction_restricted_stock_total_stock_value'
p1051
F1.0
sg23
g5
sS'fraction_restricted_stock_deferred_total_stock_value'
p1052
F1.0
sg25
I325000
sg26
I207940
sg27
g5
sg28
g5
sS'fraction_long_term_incentive_total_payments'
p1053
F1.0
sg30
I207940
sS'fraction_expenses_total_payments'
p1054
F1.0
sS'fraction_deferred_income_total_payments'
p1055
F1.0
sg33
I184899
sS'fraction_exercised_stock_options_total_stock_value'
p1056
F1.0
sg35
I807956
sS'fraction_director_fees_total_payments'
p1057
F1.0
sg37
F0.0
sg38
g5
sS'fraction_salary_total_payments'
p1058
F1.0
ssS'GAHN ROBERT S'
p1059
(dp1060
g3
g5
sg4
I73122
sg6
I50080
sS'fraction_deferral_payments_total_payments'
p1061
F1.0
sg8
I00
sg9
I-1042
sS'fraction_loan_advances_total_payments'
p1062
F1.0
sg11
g5
sg13
g5
sS'fraction_bonus_total_payments'
p1063
F1.0
sg15
F0.0
sg16
g5
sg17
g5
sg18
g5
sg19
g5
sg20
I76547
sS'fraction_other_total_payments'
p1064
F1.0
sS'fraction_restricted_stock_total_stock_value'
p1065
F1.0
sg23
g5
sS'fraction_restricted_stock_deferred_total_stock_value'
p1066
F1.0
sg25
I509870
sg26
I318607
sg27
g5
sg28
g5
sS'fraction_long_term_incentive_total_payments'
p1067
F1.0
sg30
I235370
sS'fraction_expenses_total_payments'
p1068
F1.0
sS'fraction_deferred_income_total_payments'
p1069
F1.0
sg33
I192008
sS'fraction_exercised_stock_options_total_stock_value'
p1070
F1.0
sg35
I900585
sS'fraction_director_fees_total_payments'
p1071
F1.0
sg37
F0.0
sg38
I83237
sS'fraction_salary_total_payments'
p1072
F1.0
ssS'MCCLELLAN GEORGE'
p1073
(dp1074
g3
I1744
sg4
g5
sg6
I228763
sS'fraction_deferral_payments_total_payments'
p1075
F1.0
sg8
I00
sg9
I-125000
sS'fraction_loan_advances_total_payments'
p1076
F1.0
sg11
S'george.mcclellan@enron.com'
p1077
sg13
g5
sS'fraction_bonus_total_payments'
p1078
F1.0
sg15
F0.02981651376146789
sg16
g5
sg17
I1469
sg18
g5
sg19
I49
sg20
I51587
sS'fraction_other_total_payments'
p1079
F1.0
sS'fraction_restricted_stock_total_stock_value'
p1080
F1.0
sg23
g5
sS'fraction_restricted_stock_deferred_total_stock_value'
p1081
F1.0
sg25
I900000
sg26
I947861
sg27
I52
sg28
I0
sS'fraction_long_term_incentive_total_payments'
p1082
F1.0
sg30
I441096
sS'fraction_expenses_total_payments'
p1083
F1.0
sS'fraction_deferred_income_total_payments'
p1084
F1.0
sg33
I263413
sS'fraction_exercised_stock_options_total_stock_value'
p1085
F1.0
sg35
I1318763
sS'fraction_director_fees_total_payments'
p1086
F1.0
sg37
F0.0
sg38
I506765
sS'fraction_salary_total_payments'
p1087
F1.0
ssS'HERMANN ROBERT J'
p1088
(dp1089
g3
g5
sg4
g5
sg6
I48357
sS'fraction_deferral_payments_total_payments'
p1090
F1.0
sg8
I00
sg9
I-280000
sS'fraction_loan_advances_total_payments'
p1091
F1.0
sg11
S'robert.hermann@enron.com'
p1092
sg13
I150000
sS'fraction_bonus_total_payments'
p1093
F1.0
sg15
F0.0
sg16
g5
sg17
g5
sg18
g5
sg19
g5
sg20
I416441
sS'fraction_other_total_payments'
p1094
F1.0
sS'fraction_restricted_stock_total_stock_value'
p1095
F1.0
sg23
g5
sS'fraction_restricted_stock_deferred_total_stock_value'
p1096
F1.0
sg25
I700000
sg26
I668132
sg27
g5
sg28
g5
sS'fraction_long_term_incentive_total_payments'
p1097
F1.0
sg30
I480632
sS'fraction_expenses_total_payments'
p1098
F1.0
sS'fraction_deferred_income_total_payments'
p1099
F1.0
sg33
I262663
sS'fraction_exercised_stock_options_total_stock_value'
p1100
F1.0
sg35
I1297461
sS'fraction_director_fees_total_payments'
p1101
F1.0
sg37
F0.0
sg38
I187500
sS'fraction_salary_total_payments'
p1102
F1.0
ssS'SCRIMSHAW MATTHEW'
p1103
(dp1104
g3
g5
sg4
g5
sg6
g5
sS'fraction_deferral_payments_total_payments'
p1105
F0.0
sg8
I00
sg9
g5
sS'fraction_loan_advances_total_payments'
p1106
F0.0
sg11
S'matthew.scrimshaw@enron.com'
p1107
sg13
g5
sS'fraction_bonus_total_payments'
p1108
F0.0
sg15
F0.0
sg16
g5
sg17
g5
sg18
g5
sg19
g5
sg20
g5
sS'fraction_other_total_payments'
p1109
F0.0
sS'fraction_restricted_stock_total_stock_value'
p1110
F1.0
sg23
g5
sS'fraction_restricted_stock_deferred_total_stock_value'
p1111
F1.0
sg25
g5
sg26
I759557
sg27
g5
sg28
g5
sS'fraction_long_term_incentive_total_payments'
p1112
F0.0
sg30
g5
sS'fraction_expenses_total_payments'
p1113
F0.0
sS'fraction_deferred_income_total_payments'
p1114
F0.0
sg33
g5
sS'fraction_exercised_stock_options_total_stock_value'
p1115
F1.0
sg35
g5
sS'fraction_director_fees_total_payments'
p1116
F0.0
sg37
F0.0
sg38
I759557
sS'fraction_salary_total_payments'
p1117
F0.0
ssS'GATHMANN WILLIAM D'
p1118
(dp1119
g3
g5
sg4
g5
sg6
g5
sS'fraction_deferral_payments_total_payments'
p1120
F0.0
sg8
I00
sg9
g5
sS'fraction_loan_advances_total_payments'
p1121
F0.0
sg11
g5
sg13
g5
sS'fraction_bonus_total_payments'
p1122
F0.0
sg15
F0.0
sg16
I-72419
sg17
g5
sg18
g5
sg19
g5
sg20
g5
sS'fraction_other_total_payments'
p1123
F0.0
sS'fraction_restricted_stock_total_stock_value'
p1124
F1.0
sg23
g5
sS'fraction_restricted_stock_deferred_total_stock_value'
p1125
F1.0
sg25
g5
sg26
I1945360
sg27
g5
sg28
g5
sS'fraction_long_term_incentive_total_payments'
p1126
F0.0
sg30
I264013
sS'fraction_expenses_total_payments'
p1127
F0.0
sS'fraction_deferred_income_total_payments'
p1128
F0.0
sg33
g5
sS'fraction_exercised_stock_options_total_stock_value'
p1129
F1.0
sg35
g5
sS'fraction_director_fees_total_payments'
p1130
F0.0
sg37
F0.0
sg38
I1753766
sS'fraction_salary_total_payments'
p1131
F0.0
ssS'HAEDICKE MARK E'
p1132
(dp1133
g3
I4009
sg4
I2157527
sg6
I76169
sS'fraction_deferral_payments_total_payments'
p1134
F1.0
sg8
I00
sg9
I-934484
sS'fraction_loan_advances_total_payments'
p1135
F1.0
sg11
S'mark.haedicke@enron.com'
p1136
sg13
I983346
sS'fraction_bonus_total_payments'
p1137
F1.0
sg15
F0.04489897730107259
sg16
I-329825
sg17
I1847
sg18
g5
sg19
I1941
sg20
I52382
sS'fraction_other_total_payments'
p1138
F1.0
sS'fraction_restricted_stock_total_stock_value'
p1139
F1.0
sg23
g5
sS'fraction_restricted_stock_deferred_total_stock_value'
p1140
F1.0
sg25
I1150000
sg26
I803094
sg27
I180
sg28
I61
sS'fraction_long_term_incentive_total_payments'
p1141
F1.0
sg30
I524169
sS'fraction_expenses_total_payments'
p1142
F1.0
sS'fraction_deferred_income_total_payments'
p1143
F1.0
sg33
I374125
sS'fraction_exercised_stock_options_total_stock_value'
p1144
F1.0
sg35
I3859065
sS'fraction_director_fees_total_payments'
p1145
F1.0
sg37
F0.03142709943328181
sg38
I608750
sS'fraction_salary_total_payments'
p1146
F1.0
ssS'BOWEN JR RAYMOND M'
p1147
(dp1148
g3
I1858
sg4
g5
sg6
I65907
sS'fraction_deferral_payments_total_payments'
p1149
F1.0
sg8
I01
sg9
I-833
sS'fraction_loan_advances_total_payments'
p1150
F1.0
sg11
S'raymond.bowen@enron.com'
p1151
sg13
I974293
sS'fraction_bonus_total_payments'
p1152
F1.0
sg15
F0.07534983853606028
sg16
g5
sg17
I1593
sg18
g5
sg19
I27
sg20
I1621
sS'fraction_other_total_payments'
p1153
F1.0
sS'fraction_restricted_stock_total_stock_value'
p1154
F1.0
sg23
g5
sS'fraction_restricted_stock_deferred_total_stock_value'
p1155
F1.0
sg25
I1350000
sg26
I252055
sg27
I140
sg28
I15
sS'fraction_long_term_incentive_total_payments'
p1156
F1.0
sg30
I252055
sS'fraction_expenses_total_payments'
p1157
F1.0
sS'fraction_deferred_income_total_payments'
p1158
F1.0
sg33
I278601
sS'fraction_exercised_stock_options_total_stock_value'
p1159
F1.0
sg35
I2669589
sS'fraction_director_fees_total_payments'
p1160
F1.0
sg37
F0.5555555555555556
sg38
g5
sS'fraction_salary_total_payments'
p1161
F1.0
ssS'GILLIS JOHN'
p1162
(dp1163
g3
g5
sg4
g5
sg6
g5
sS'fraction_deferral_payments_total_payments'
p1164
F0.0
sg8
I00
sg9
g5
sS'fraction_loan_advances_total_payments'
p1165
F0.0
sg11
g5
sg13
g5
sS'fraction_bonus_total_payments'
p1166
F0.0
sg15
F0.0
sg16
g5
sg17
g5
sg18
g5
sg19
g5
sg20
g5
sS'fraction_other_total_payments'
p1167
F0.0
sS'fraction_restricted_stock_total_stock_value'
p1168
F1.0
sg23
g5
sS'fraction_restricted_stock_deferred_total_stock_value'
p1169
F1.0
sg25
g5
sg26
I85641
sg27
g5
sg28
g5
sS'fraction_long_term_incentive_total_payments'
p1170
F0.0
sg30
I75838
sS'fraction_expenses_total_payments'
p1171
F0.0
sS'fraction_deferred_income_total_payments'
p1172
F0.0
sg33
g5
sS'fraction_exercised_stock_options_total_stock_value'
p1173
F1.0
sg35
g5
sS'fraction_director_fees_total_payments'
p1174
F0.0
sg37
F0.0
sg38
I9803
sS'fraction_salary_total_payments'
p1175
F0.0
ssS'FITZGERALD JAY L'
p1176
(dp1177
g3
I936
sg4
g5
sg6
I23870
sS'fraction_deferral_payments_total_payments'
p1178
F1.0
sg8
I00
sg9
g5
sS'fraction_loan_advances_total_payments'
p1179
F1.0
sg11
S'jay.fitzgerald@enron.com'
p1180
sg13
I556416
sS'fraction_bonus_total_payments'
p1181
F1.0
sg15
F0.0010683760683760685
sg16
g5
sg17
I723
sg18
g5
sg19
I16
sg20
I285414
sS'fraction_other_total_payments'
p1182
F1.0
sS'fraction_restricted_stock_total_stock_value'
p1183
F1.0
sg23
g5
sS'fraction_restricted_stock_deferred_total_stock_value'
p1184
F1.0
sg25
I350000
sg26
I1621236
sg27
I1
sg28
I8
sS'fraction_long_term_incentive_total_payments'
p1185
F1.0
sg30
I956775
sS'fraction_expenses_total_payments'
p1186
F1.0
sS'fraction_deferred_income_total_payments'
p1187
F1.0
sg33
I199157
sS'fraction_exercised_stock_options_total_stock_value'
p1188
F1.0
sg35
I1414857
sS'fraction_director_fees_total_payments'
p1189
F1.0
sg37
F0.5
sg38
I664461
sS'fraction_salary_total_payments'
p1190
F1.0
ssS'MORAN MICHAEL P'
p1191
(dp1192
g3
I672
sg4
g5
sg6
g5
sS'fraction_deferral_payments_total_payments'
p1193
F0.0
sg8
I00
sg9
g5
sS'fraction_loan_advances_total_payments'
p1194
F0.0
sg11
S'michael.moran@enron.com'
p1195
sg13
g5
sS'fraction_bonus_total_payments'
p1196
F0.0
sg15
F0.0
sg16
g5
sg17
I127
sg18
g5
sg19
I19
sg20
g5
sS'fraction_other_total_payments'
p1197
F0.0
sS'fraction_restricted_stock_total_stock_value'
p1198
F1.0
sg23
g5
sS'fraction_restricted_stock_deferred_total_stock_value'
p1199
F1.0
sg25
g5
sg26
I221141
sg27
I0
sg28
I0
sS'fraction_long_term_incentive_total_payments'
p1200
F0.0
sg30
I161602
sS'fraction_expenses_total_payments'
p1201
F0.0
sS'fraction_deferred_income_total_payments'
p1202
F0.0
sg33
g5
sS'fraction_exercised_stock_options_total_stock_value'
p1203
F1.0
sg35
g5
sS'fraction_director_fees_total_payments'
p1204
F0.0
sg37
F0.0
sg38
I59539
sS'fraction_salary_total_payments'
p1205
F0.0
ssS'REDMOND BRIAN L'
p1206
(dp1207
g3
I1671
sg4
g5
sg6
I14689
sS'fraction_deferral_payments_total_payments'
p1208
F1.0
sg8
I00
sg9
g5
sS'fraction_loan_advances_total_payments'
p1209
F1.0
sg11
S'brian.redmond@enron.com'
p1210
sg13
g5
sS'fraction_bonus_total_payments'
p1211
F1.0
sg15
F0.12208258527827648
sg16
g5
sg17
I1063
sg18
g5
sg19
I221
sg20
g5
sS'fraction_other_total_payments'
p1212
F1.0
sS'fraction_restricted_stock_total_stock_value'
p1213
F1.0
sg23
g5
sS'fraction_restricted_stock_deferred_total_stock_value'
p1214
F1.0
sg25
g5
sg26
I7890324
sg27
I204
sg28
I49
sS'fraction_long_term_incentive_total_payments'
p1215
F1.0
sg30
I381285
sS'fraction_expenses_total_payments'
p1216
F1.0
sS'fraction_deferred_income_total_payments'
p1217
F1.0
sg33
I96840
sS'fraction_exercised_stock_options_total_stock_value'
p1218
F1.0
sg35
I111529
sS'fraction_director_fees_total_payments'
p1219
F1.0
sg37
F0.22171945701357465
sg38
I7509039
sS'fraction_salary_total_payments'
p1220
F1.0
ssS'BAZELIDES PHILIP J'
p1221
(dp1222
g3
g5
sg4
I684694
sg6
g5
sS'fraction_deferral_payments_total_payments'
p1223
F1.0
sg8
I00
sg9
g5
sS'fraction_loan_advances_total_payments'
p1224
F1.0
sg11
g5
sg13
I93750
sS'fraction_bonus_total_payments'
p1225
F1.0
sg15
F0.0
sg16
g5
sg17
g5
sg18
g5
sg19
g5
sg20
I874
sS'fraction_other_total_payments'
p1226
F1.0
sS'fraction_restricted_stock_total_stock_value'
p1227
F1.0
sg23
g5
sS'fraction_restricted_stock_deferred_total_stock_value'
p1228
F1.0
sg25
g5
sg26
I1599641
sg27
g5
sg28
g5
sS'fraction_long_term_incentive_total_payments'
p1229
F1.0
sg30
g5
sS'fraction_expenses_total_payments'
p1230
F1.0
sS'fraction_deferred_income_total_payments'
p1231
F1.0
sg33
I80818
sS'fraction_exercised_stock_options_total_stock_value'
p1232
F1.0
sg35
I860136
sS'fraction_director_fees_total_payments'
p1233
F1.0
sg37
F0.0
sg38
I1599641
sS'fraction_salary_total_payments'
p1234
F1.0
ssS'BELDEN TIMOTHY N'
p1235
(dp1236
g3
I7991
sg4
I2144013
sg6
I17355
sS'fraction_deferral_payments_total_payments'
p1237
F1.0
sg8
I01
sg9
I-2334434
sS'fraction_loan_advances_total_payments'
p1238
F1.0
sg11
S'tim.belden@enron.com'
p1239
sg13
g5
sS'fraction_bonus_total_payments'
p1240
F1.0
sg15
F0.028532098610937303
sg16
g5
sg17
I5521
sg18
g5
sg19
I484
sg20
I210698
sS'fraction_other_total_payments'
p1241
F1.0
sS'fraction_restricted_stock_total_stock_value'
p1242
F1.0
sg23
g5
sS'fraction_restricted_stock_deferred_total_stock_value'
p1243
F1.0
sg25
I5249999
sg26
I1110705
sg27
I228
sg28
I108
sS'fraction_long_term_incentive_total_payments'
p1244
F1.0
sg30
I157569
sS'fraction_expenses_total_payments'
p1245
F1.0
sS'fraction_deferred_income_total_payments'
p1246
F1.0
sg33
I213999
sS'fraction_exercised_stock_options_total_stock_value'
p1247
F1.0
sg35
I5501630
sS'fraction_director_fees_total_payments'
p1248
F1.0
sg37
F0.2231404958677686
sg38
I953136
sS'fraction_salary_total_payments'
p1249
F1.0
ssS'DURAN WILLIAM D'
p1250
(dp1251
g3
I904
sg4
g5
sg6
I25785
sS'fraction_deferral_payments_total_payments'
p1252
F1.0
sg8
I00
sg9
g5
sS'fraction_loan_advances_total_payments'
p1253
F1.0
sg11
S'w.duran@enron.com'
p1254
sg13
I1105218
sS'fraction_bonus_total_payments'
p1255
F1.0
sg15
F0.1172566371681416
sg16
g5
sg17
I599
sg18
g5
sg19
I12
sg20
I1568
sS'fraction_other_total_payments'
p1256
F1.0
sS'fraction_restricted_stock_total_stock_value'
p1257
F1.0
sg23
g5
sS'fraction_restricted_stock_deferred_total_stock_value'
p1258
F1.0
sg25
I750000
sg26
I1640910
sg27
I106
sg28
I3
sS'fraction_long_term_incentive_total_payments'
p1259
F1.0
sg30
I189041
sS'fraction_expenses_total_payments'
p1260
F1.0
sS'fraction_deferred_income_total_payments'
p1261
F1.0
sg33
I210692
sS'fraction_exercised_stock_options_total_stock_value'
p1262
F1.0
sg35
I2093263
sS'fraction_director_fees_total_payments'
p1263
F1.0
sg37
F0.25
sg38
I1451869
sS'fraction_salary_total_payments'
p1264
F1.0
ssS'THORN TERENCE H'
p1265
(dp1266
g3
I266
sg4
I16586
sg6
I46145
sS'fraction_deferral_payments_total_payments'
p1267
F1.0
sg8
I00
sg9
g5
sS'fraction_loan_advances_total_payments'
p1268
F1.0
sg11
S'terence.thorn@enron.com'
p1269
sg13
I200000
sS'fraction_bonus_total_payments'
p1270
F1.0
sg15
F0.0
sg16
g5
sg17
I73
sg18
g5
sg19
I41
sg20
I426629
sS'fraction_other_total_payments'
p1271
F1.0
sS'fraction_restricted_stock_total_stock_value'
p1272
F1.0
sg23
g5
sS'fraction_restricted_stock_deferred_total_stock_value'
p1273
F1.0
sg25
g5
sg26
I4817796
sg27
I0
sg28
I0
sS'fraction_long_term_incentive_total_payments'
p1274
F1.0
sg30
I365320
sS'fraction_expenses_total_payments'
p1275
F1.0
sS'fraction_deferred_income_total_payments'
p1276
F1.0
sg33
I222093
sS'fraction_exercised_stock_options_total_stock_value'
p1277
F1.0
sg35
I911453
sS'fraction_director_fees_total_payments'
p1278
F1.0
sg37
F0.0
sg38
I4452476
sS'fraction_salary_total_payments'
p1279
F1.0
ssS'FASTOW ANDREW S'
p1280
(dp1281
g3
g5
sg4
g5
sg6
I55921
sS'fraction_deferral_payments_total_payments'
p1282
F1.0
sg8
I01
sg9
I-1386055
sS'fraction_loan_advances_total_payments'
p1283
F1.0
sg11
S'andrew.fastow@enron.com'
p1284
sg13
I1736055
sS'fraction_bonus_total_payments'
p1285
F1.0
sg15
F0.0
sg16
g5
sg17
g5
sg18
g5
sg19
g5
sg20
I277464
sS'fraction_other_total_payments'
p1286
F1.0
sS'fraction_restricted_stock_total_stock_value'
p1287
F1.0
sg23
g5
sS'fraction_restricted_stock_deferred_total_stock_value'
p1288
F1.0
sg25
I1300000
sg26
I1794412
sg27
g5
sg28
g5
sS'fraction_long_term_incentive_total_payments'
p1289
F1.0
sg30
I1794412
sS'fraction_expenses_total_payments'
p1290
F1.0
sS'fraction_deferred_income_total_payments'
p1291
F1.0
sg33
I440698
sS'fraction_exercised_stock_options_total_stock_value'
p1292
F1.0
sg35
I2424083
sS'fraction_director_fees_total_payments'
p1293
F1.0
sg37
F0.0
sg38
g5
sS'fraction_salary_total_payments'
p1294
F1.0
ssS'FOY JOE'
p1295
(dp1296
g3
I57
sg4
I181755
sg6
g5
sS'fraction_deferral_payments_total_payments'
p1297
F1.0
sg8
I00
sg9
g5
sS'fraction_loan_advances_total_payments'
p1298
F1.0
sg11
S'tracy.foy@enron.com'
p1299
sg13
g5
sS'fraction_bonus_total_payments'
p1300
F1.0
sg15
F0.0
sg16
g5
sg17
I2
sg18
g5
sg19
I13
sg20
g5
sS'fraction_other_total_payments'
p1301
F1.0
sS'fraction_restricted_stock_total_stock_value'
p1302
F1.0
sg23
g5
sS'fraction_restricted_stock_deferred_total_stock_value'
p1303
F1.0
sg25
g5
sg26
I343434
sg27
I0
sg28
I0
sS'fraction_long_term_incentive_total_payments'
p1304
F1.0
sg30
g5
sS'fraction_expenses_total_payments'
p1305
F1.0
sS'fraction_deferred_income_total_payments'
p1306
F1.0
sg33
g5
sS'fraction_exercised_stock_options_total_stock_value'
p1307
F1.0
sg35
I181755
sS'fraction_director_fees_total_payments'
p1308
F1.0
sg37
F0.0
sg38
I343434
sS'fraction_salary_total_payments'
p1309
F1.0
ssS'CALGER CHRISTOPHER F'
p1310
(dp1311
g3
I2598
sg4
g5
sg6
I35818
sS'fraction_deferral_payments_total_payments'
p1312
F1.0
sg8
I01
sg9
I-262500
sS'fraction_loan_advances_total_payments'
p1313
F1.0
sg11
S'christopher.calger@enron.com'
p1314
sg13
I375304
sS'fraction_bonus_total_payments'
p1315
F1.0
sg15
F0.07659738260200154
sg16
g5
sg17
I2188
sg18
g5
sg19
I144
sg20
I486
sS'fraction_other_total_payments'
p1316
F1.0
sS'fraction_restricted_stock_total_stock_value'
p1317
F1.0
sg23
g5
sS'fraction_restricted_stock_deferred_total_stock_value'
p1318
F1.0
sg25
I1250000
sg26
I126027
sg27
I199
sg28
I25
sS'fraction_long_term_incentive_total_payments'
p1319
F1.0
sg30
I126027
sS'fraction_expenses_total_payments'
p1320
F1.0
sS'fraction_deferred_income_total_payments'
p1321
F1.0
sg33
I240189
sS'fraction_exercised_stock_options_total_stock_value'
p1322
F1.0
sg35
I1639297
sS'fraction_director_fees_total_payments'
p1323
F1.0
sg37
F0.1736111111111111
sg38
g5
sS'fraction_salary_total_payments'
p1324
F1.0
ssS'RICE KENNETH D'
p1325
(dp1326
g3
I905
sg4
g5
sg6
I46950
sS'fraction_deferral_payments_total_payments'
p1327
F1.0
sg8
I01
sg9
I-3504386
sS'fraction_loan_advances_total_payments'
p1328
F1.0
sg11
S'ken.rice@enron.com'
p1329
sg13
I1617011
sS'fraction_bonus_total_payments'
p1330
F1.0
sg15
F0.04640883977900553
sg16
g5
sg17
I864
sg18
g5
sg19
I18
sg20
I174839
sS'fraction_other_total_payments'
p1331
F1.0
sS'fraction_restricted_stock_total_stock_value'
p1332
F1.0
sg23
g5
sS'fraction_restricted_stock_deferred_total_stock_value'
p1333
F1.0
sg25
I1750000
sg26
I22542539
sg27
I42
sg28
I4
sS'fraction_long_term_incentive_total_payments'
p1334
F1.0
sg30
I2748364
sS'fraction_expenses_total_payments'
p1335
F1.0
sS'fraction_deferred_income_total_payments'
p1336
F1.0
sg33
I420636
sS'fraction_exercised_stock_options_total_stock_value'
p1337
F1.0
sg35
I505050
sS'fraction_director_fees_total_payments'
p1338
F1.0
sg37
F0.2222222222222222
sg38
I19794175
sS'fraction_salary_total_payments'
p1339
F1.0
ssS'KAMINSKI WINCENTY J'
p1340
(dp1341
g3
I4607
sg4
g5
sg6
I83585
sS'fraction_deferral_payments_total_payments'
p1342
F1.0
sg8
I00
sg9
g5
sS'fraction_loan_advances_total_payments'
p1343
F1.0
sg11
S'vince.kaminski@enron.com'
p1344
sg13
I323466
sS'fraction_bonus_total_payments'
p1345
F1.0
sg15
F0.008899500759713479
sg16
g5
sg17
I583
sg18
g5
sg19
I14368
sg20
I4669
sS'fraction_other_total_payments'
p1346
F1.0
sS'fraction_restricted_stock_total_stock_value'
p1347
F1.0
sg23
g5
sS'fraction_restricted_stock_deferred_total_stock_value'
p1348
F1.0
sg25
I400000
sg26
I976037
sg27
I41
sg28
I171
sS'fraction_long_term_incentive_total_payments'
p1349
F1.0
sg30
I126027
sS'fraction_expenses_total_payments'
p1350
F1.0
sS'fraction_deferred_income_total_payments'
p1351
F1.0
sg33
I275101
sS'fraction_exercised_stock_options_total_stock_value'
p1352
F1.0
sg35
I1086821
sS'fraction_director_fees_total_payments'
p1353
F1.0
sg37
F0.011901447661469933
sg38
I850010
sS'fraction_salary_total_payments'
p1354
F1.0
ssS'COX DAVID'
p1355
(dp1356
g3
I102
sg4
g5
sg6
I27861
sS'fraction_deferral_payments_total_payments'
p1357
F1.0
sg8
I00
sg9
I-41250
sS'fraction_loan_advances_total_payments'
p1358
F1.0
sg11
S'chip.cox@enron.com'
p1359
sg13
g5
sS'fraction_bonus_total_payments'
p1360
F1.0
sg15
F0.0
sg16
g5
sg17
I71
sg18
g5
sg19
I33
sg20
I494
sS'fraction_other_total_payments'
p1361
F1.0
sS'fraction_restricted_stock_total_stock_value'
p1362
F1.0
sg23
g5
sS'fraction_restricted_stock_deferred_total_stock_value'
p1363
F1.0
sg25
I800000
sg26
I495633
sg27
I0
sg28
I4
sS'fraction_long_term_incentive_total_payments'
p1364
F1.0
sg30
I378082
sS'fraction_expenses_total_payments'
p1365
F1.0
sS'fraction_deferred_income_total_payments'
p1366
F1.0
sg33
I314288
sS'fraction_exercised_stock_options_total_stock_value'
p1367
F1.0
sg35
I1101393
sS'fraction_director_fees_total_payments'
p1368
F1.0
sg37
F0.12121212121212122
sg38
I117551
sS'fraction_salary_total_payments'
p1369
F1.0
ssS'OVERDYKE JR JERE C'
p1370
(dp1371
g3
g5
sg4
g5
sg6
I18834
sS'fraction_deferral_payments_total_payments'
p1372
F1.0
sg8
I00
sg9
g5
sS'fraction_loan_advances_total_payments'
p1373
F1.0
sg11
S'jere.overdyke@enron.com'
p1374
sg13
I135836
sS'fraction_bonus_total_payments'
p1375
F1.0
sg15
F0.0
sg16
g5
sg17
g5
sg18
g5
sg19
g5
sg20
I176
sS'fraction_other_total_payments'
p1376
F1.0
sS'fraction_restricted_stock_total_stock_value'
p1377
F1.0
sg23
g5
sS'fraction_restricted_stock_deferred_total_stock_value'
p1378
F1.0
sg25
g5
sg26
I7307594
sg27
g5
sg28
g5
sS'fraction_long_term_incentive_total_payments'
p1379
F1.0
sg30
I2041016
sS'fraction_expenses_total_payments'
p1380
F1.0
sS'fraction_deferred_income_total_payments'
p1381
F1.0
sg33
I94941
sS'fraction_exercised_stock_options_total_stock_value'
p1382
F1.0
sg35
I249787
sS'fraction_director_fees_total_payments'
p1383
F1.0
sg37
F0.0
sg38
I5266578
sS'fraction_salary_total_payments'
p1384
F1.0
ssS'PEREIRA PAULO V. FERRAZ'
p1385
(dp1386
g3
g5
sg4
g5
sg6
I27942
sS'fraction_deferral_payments_total_payments'
p1387
F1.0
sg8
I00
sg9
I-101250
sS'fraction_loan_advances_total_payments'
p1388
F1.0
sg11
g5
sg13
g5
sS'fraction_bonus_total_payments'
p1389
F1.0
sg15
F0.0
sg16
g5
sg17
g5
sg18
g5
sg19
g5
sg20
g5
sS'fraction_other_total_payments'
p1390
F1.0
sS'fraction_restricted_stock_total_stock_value'
p1391
F0.0
sg23
I101250
sS'fraction_restricted_stock_deferred_total_stock_value'
p1392
F0.0
sg25
g5
sg26
g5
sg27
g5
sg28
g5
sS'fraction_long_term_incentive_total_payments'
p1393
F1.0
sg30
g5
sS'fraction_expenses_total_payments'
p1394
F1.0
sS'fraction_deferred_income_total_payments'
p1395
F1.0
sg33
g5
sS'fraction_exercised_stock_options_total_stock_value'
p1396
F0.0
sg35
I27942
sS'fraction_director_fees_total_payments'
p1397
F1.0
sg37
F0.0
sg38
g5
sS'fraction_salary_total_payments'
p1398
F1.0
ssS'STABLER FRANK'
p1399
(dp1400
g3
g5
sg4
g5
sg6
I16514
sS'fraction_deferral_payments_total_payments'
p1401
F1.0
sg8
I00
sg9
g5
sS'fraction_loan_advances_total_payments'
p1402
F1.0
sg11
S'frank.stabler@enron.com'
p1403
sg13
g5
sS'fraction_bonus_total_payments'
p1404
F1.0
sg15
F0.0
sg16
g5
sg17
g5
sg18
g5
sg19
g5
sg20
I356071
sS'fraction_other_total_payments'
p1405
F1.0
sS'fraction_restricted_stock_total_stock_value'
p1406
F1.0
sg23
g5
sS'fraction_restricted_stock_deferred_total_stock_value'
p1407
F1.0
sg25
I500000
sg26
I511734
sg27
g5
sg28
g5
sS'fraction_long_term_incentive_total_payments'
p1408
F1.0
sg30
I511734
sS'fraction_expenses_total_payments'
p1409
F1.0
sS'fraction_deferred_income_total_payments'
p1410
F1.0
sg33
I239502
sS'fraction_exercised_stock_options_total_stock_value'
p1411
F1.0
sg35
I1112087
sS'fraction_director_fees_total_payments'
p1412
F1.0
sg37
F0.0
sg38
g5
sS'fraction_salary_total_payments'
p1413
F1.0
ssS'SKILLING JEFFREY K'
p1414
(dp1415
g3
I3627
sg4
g5
sg6
I29336
sS'fraction_deferral_payments_total_payments'
p1416
F1.0
sg8
I01
sg9
g5
sS'fraction_loan_advances_total_payments'
p1417
F1.0
sg11
S'jeff.skilling@enron.com'
p1418
sg13
I1920000
sS'fraction_bonus_total_payments'
p1419
F1.0
sg15
F0.0242624758753791
sg16
g5
sg17
I2042
sg18
g5
sg19
I108
sg20
I22122
sS'fraction_other_total_payments'
p1420
F1.0
sS'fraction_restricted_stock_total_stock_value'
p1421
F1.0
sg23
g5
sS'fraction_restricted_stock_deferred_total_stock_value'
p1422
F1.0
sg25
I5600000
sg26
I26093672
sg27
I88
sg28
I30
sS'fraction_long_term_incentive_total_payments'
p1423
F1.0
sg30
I6843672
sS'fraction_expenses_total_payments'
p1424
F1.0
sS'fraction_deferred_income_total_payments'
p1425
F1.0
sg33
I1111258
sS'fraction_exercised_stock_options_total_stock_value'
p1426
F1.0
sg35
I8682716
sS'fraction_director_fees_total_payments'
p1427
F1.0
sg37
F0.2777777777777778
sg38
I19250000
sS'fraction_salary_total_payments'
p1428
F1.0
ssS'BLAKE JR. NORMAN P'
p1429
(dp1430
g3
g5
sg4
g5
sg6
I1279
sS'fraction_deferral_payments_total_payments'
p1431
F1.0
sg8
I00
sg9
I-113784
sS'fraction_loan_advances_total_payments'
p1432
F1.0
sg11
g5
sg13
g5
sS'fraction_bonus_total_payments'
p1433
F1.0
sg15
F0.0
sg16
g5
sg17
g5
sg18
g5
sg19
g5
sg20
g5
sS'fraction_other_total_payments'
p1434
F1.0
sS'fraction_restricted_stock_total_stock_value'
p1435
F0.0
sg23
I113784
sS'fraction_restricted_stock_deferred_total_stock_value'
p1436
F0.0
sg25
g5
sg26
g5
sg27
g5
sg28
g5
sS'fraction_long_term_incentive_total_payments'
p1437
F1.0
sg30
g5
sS'fraction_expenses_total_payments'
p1438
F1.0
sS'fraction_deferred_income_total_payments'
p1439
F1.0
sg33
g5
sS'fraction_exercised_stock_options_total_stock_value'
p1440
F0.0
sg35
I1279
sS'fraction_director_fees_total_payments'
p1441
F1.0
sg37
F0.0
sg38
g5
sS'fraction_salary_total_payments'
p1442
F1.0
ssS'SHERRICK JEFFREY B'
p1443
(dp1444
g3
I613
sg4
g5
sg6
g5
sS'fraction_deferral_payments_total_payments'
p1445
F0.0
sg8
I00
sg9
g5
sS'fraction_loan_advances_total_payments'
p1446
F0.0
sg11
S'jeffrey.sherrick@enron.com'
p1447
sg13
g5
sS'fraction_bonus_total_payments'
p1448
F0.0
sg15
F0.0636215334420881
sg16
g5
sg17
I583
sg18
g5
sg19
I25
sg20
g5
sS'fraction_other_total_payments'
p1449
F0.0
sS'fraction_restricted_stock_total_stock_value'
p1450
F1.0
sg23
g5
sS'fraction_restricted_stock_deferred_total_stock_value'
p1451
F1.0
sg25
g5
sg26
I1832468
sg27
I39
sg28
I18
sS'fraction_long_term_incentive_total_payments'
p1452
F0.0
sg30
I405999
sS'fraction_expenses_total_payments'
p1453
F0.0
sS'fraction_deferred_income_total_payments'
p1454
F0.0
sg33
g5
sS'fraction_exercised_stock_options_total_stock_value'
p1455
F1.0
sg35
g5
sS'fraction_director_fees_total_payments'
p1456
F0.0
sg37
F0.72
sg38
I1426469
sS'fraction_salary_total_payments'
p1457
F0.0
ssS'PRENTICE JAMES'
p1458
(dp1459
g3
g5
sg4
I564348
sg6
g5
sS'fraction_deferral_payments_total_payments'
p1460
F1.0
sg8
I00
sg9
g5
sS'fraction_loan_advances_total_payments'
p1461
F1.0
sg11
S'james.prentice@enron.com'
p1462
sg13
g5
sS'fraction_bonus_total_payments'
p1463
F1.0
sg15
F0.0
sg16
g5
sg17
g5
sg18
g5
sg19
g5
sg20
g5
sS'fraction_other_total_payments'
p1464
F1.0
sS'fraction_restricted_stock_total_stock_value'
p1465
F1.0
sg23
g5
sS'fraction_restricted_stock_deferred_total_stock_value'
p1466
F1.0
sg25
g5
sg26
I1095040
sg27
g5
sg28
g5
sS'fraction_long_term_incentive_total_payments'
p1467
F1.0
sg30
I208809
sS'fraction_expenses_total_payments'
p1468
F1.0
sS'fraction_deferred_income_total_payments'
p1469
F1.0
sg33
g5
sS'fraction_exercised_stock_options_total_stock_value'
p1470
F1.0
sg35
I564348
sS'fraction_director_fees_total_payments'
p1471
F1.0
sg37
F0.0
sg38
I886231
sS'fraction_salary_total_payments'
p1472
F1.0
ssS'GRAY RODNEY'
p1473
(dp1474
g3
g5
sg4
I93585
sg6
g5
sS'fraction_deferral_payments_total_payments'
p1475
F1.0
sg8
I00
sg9
g5
sS'fraction_loan_advances_total_payments'
p1476
F1.0
sg11
g5
sg13
I365625
sS'fraction_bonus_total_payments'
p1477
F1.0
sg15
F0.0
sg16
g5
sg17
g5
sg18
g5
sg19
g5
sg20
I680833
sS'fraction_other_total_payments'
p1478
F1.0
sS'fraction_restricted_stock_total_stock_value'
p1479
F0.0
sg23
g5
sS'fraction_restricted_stock_deferred_total_stock_value'
p1480
F0.0
sg25
g5
sg26
g5
sg27
g5
sg28
g5
sS'fraction_long_term_incentive_total_payments'
p1481
F1.0
sg30
g5
sS'fraction_expenses_total_payments'
p1482
F1.0
sS'fraction_deferred_income_total_payments'
p1483
F1.0
sg33
I6615
sS'fraction_exercised_stock_options_total_stock_value'
p1484
F0.0
sg35
I1146658
sS'fraction_director_fees_total_payments'
p1485
F1.0
sg37
F0.0
sg38
g5
sS'fraction_salary_total_payments'
p1486
F1.0
ssS'PICKERING MARK R'
p1487
(dp1488
g3
I898
sg4
g5
sg6
I31653
sS'fraction_deferral_payments_total_payments'
p1489
F1.0
sg8
I00
sg9
g5
sS'fraction_loan_advances_total_payments'
p1490
F1.0
sg11
S'mark.pickering@enron.com'
p1491
sg13
g5
sS'fraction_bonus_total_payments'
p1492
F1.0
sg15
F0.0077951002227171495
sg16
g5
sg17
I728
sg18
I400000
sg19
I67
sg20
g5
sS'fraction_other_total_payments'
p1493
F1.0
sS'fraction_restricted_stock_total_stock_value'
p1494
F1.0
sg23
g5
sS'fraction_restricted_stock_deferred_total_stock_value'
p1495
F1.0
sg25
I300000
sg26
I28798
sg27
I7
sg28
I0
sS'fraction_long_term_incentive_total_payments'
p1496
F1.0
sg30
g5
sS'fraction_expenses_total_payments'
p1497
F1.0
sS'fraction_deferred_income_total_payments'
p1498
F1.0
sg33
I655037
sS'fraction_exercised_stock_options_total_stock_value'
p1499
F1.0
sg35
I1386690
sS'fraction_director_fees_total_payments'
p1500
F1.0
sg37
F0.0
sg38
I28798
sS'fraction_salary_total_payments'
p1501
F1.0
ssS'THE TRAVEL AGENCY IN THE PARK'
p1502
(dp1503
g3
g5
sg4
g5
sg6
g5
sS'fraction_deferral_payments_total_payments'
p1504
F1.0
sg8
I00
sg9
g5
sS'fraction_loan_advances_total_payments'
p1505
F1.0
sg11
g5
sg13
g5
sS'fraction_bonus_total_payments'
p1506
F1.0
sg15
F0.0
sg16
g5
sg17
g5
sg18
g5
sg19
g5
sg20
I362096
sS'fraction_other_total_payments'
p1507
F1.0
sS'fraction_restricted_stock_total_stock_value'
p1508
F0.0
sg23
g5
sS'fraction_restricted_stock_deferred_total_stock_value'
p1509
F0.0
sg25
g5
sg26
g5
sg27
g5
sg28
g5
sS'fraction_long_term_incentive_total_payments'
p1510
F1.0
sg30
g5
sS'fraction_expenses_total_payments'
p1511
F1.0
sS'fraction_deferred_income_total_payments'
p1512
F1.0
sg33
g5
sS'fraction_exercised_stock_options_total_stock_value'
p1513
F0.0
sg35
I362096
sS'fraction_director_fees_total_payments'
p1514
F1.0
sg37
F0.0
sg38
g5
sS'fraction_salary_total_payments'
p1515
F1.0
ssS'NOLES JAMES L'
p1516
(dp1517
g3
g5
sg4
I774401
sg6
g5
sS'fraction_deferral_payments_total_payments'
p1518
F1.0
sg8
I00
sg9
g5
sS'fraction_loan_advances_total_payments'
p1519
F1.0
sg11
g5
sg13
g5
sS'fraction_bonus_total_payments'
p1520
F1.0
sg15
F0.0
sg16
I-94556
sg17
g5
sg18
g5
sg19
g5
sg20
g5
sS'fraction_other_total_payments'
p1521
F1.0
sS'fraction_restricted_stock_total_stock_value'
p1522
F1.0
sg23
g5
sS'fraction_restricted_stock_deferred_total_stock_value'
p1523
F1.0
sg25
g5
sg26
I368705
sg27
g5
sg28
g5
sS'fraction_long_term_incentive_total_payments'
p1524
F1.0
sg30
I463261
sS'fraction_expenses_total_payments'
p1525
F1.0
sS'fraction_deferred_income_total_payments'
p1526
F1.0
sg33
g5
sS'fraction_exercised_stock_options_total_stock_value'
p1527
F1.0
sg35
I774401
sS'fraction_director_fees_total_payments'
p1528
F1.0
sg37
F0.0
sg38
g5
sS'fraction_salary_total_payments'
p1529
F1.0
ssS'KEAN STEVEN J'
p1530
(dp1531
g3
I12754
sg4
g5
sg6
I41953
sS'fraction_deferral_payments_total_payments'
p1532
F1.0
sg8
I00
sg9
g5
sS'fraction_loan_advances_total_payments'
p1533
F1.0
sg11
S'steven.kean@enron.com'
p1534
sg13
I300000
sS'fraction_bonus_total_payments'
p1535
F1.0
sg15
F0.010976948408342482
sg16
g5
sg17
I3639
sg18
g5
sg19
I6759
sg20
I1231
sS'fraction_other_total_payments'
p1536
F1.0
sS'fraction_restricted_stock_total_stock_value'
p1537
F1.0
sg23
g5
sS'fraction_restricted_stock_deferred_total_stock_value'
p1538
F1.0
sg25
I1000000
sg26
I6153642
sg27
I140
sg28
I387
sS'fraction_long_term_incentive_total_payments'
p1539
F1.0
sg30
I4131594
sS'fraction_expenses_total_payments'
p1540
F1.0
sS'fraction_deferred_income_total_payments'
p1541
F1.0
sg33
I404338
sS'fraction_exercised_stock_options_total_stock_value'
p1542
F1.0
sg35
I1747522
sS'fraction_director_fees_total_payments'
p1543
F1.0
sg37
F0.05725699067909454
sg38
I2022048
sS'fraction_salary_total_payments'
p1544
F1.0
ssS'FOWLER PEGGY'
p1545
(dp1546
g3
I517
sg4
g5
sg6
g5
sS'fraction_deferral_payments_total_payments'
p1547
F0.0
sg8
I00
sg9
g5
sS'fraction_loan_advances_total_payments'
p1548
F0.0
sg11
S'kulvinder.fowler@enron.com'
p1549
sg13
g5
sS'fraction_bonus_total_payments'
p1550
F0.0
sg15
F0.0
sg16
g5
sg17
I10
sg18
g5
sg19
I36
sg20
g5
sS'fraction_other_total_payments'
p1551
F0.0
sS'fraction_restricted_stock_total_stock_value'
p1552
F1.0
sg23
g5
sS'fraction_restricted_stock_deferred_total_stock_value'
p1553
F1.0
sg25
g5
sg26
I1884748
sg27
I0
sg28
I0
sS'fraction_long_term_incentive_total_payments'
p1554
F0.0
sg30
I560170
sS'fraction_expenses_total_payments'
p1555
F0.0
sS'fraction_deferred_income_total_payments'
p1556
F0.0
sg33
g5
sS'fraction_exercised_stock_options_total_stock_value'
p1557
F1.0
sg35
g5
sS'fraction_director_fees_total_payments'
p1558
F0.0
sg37
F0.0
sg38
I1324578
sS'fraction_salary_total_payments'
p1559
F0.0
ssS'WASAFF GEORGE'
p1560
(dp1561
g3
I400
sg4
I831299
sg6
g5
sS'fraction_deferral_payments_total_payments'
p1562
F1.0
sg8
I00
sg9
I-583325
sS'fraction_loan_advances_total_payments'
p1563
F1.0
sg11
S'george.wasaff@enron.com'
p1564
sg13
I200000
sS'fraction_bonus_total_payments'
p1565
F1.0
sg15
F0.055
sg16
g5
sg17
I337
sg18
g5
sg19
I30
sg20
I1425
sS'fraction_other_total_payments'
p1566
F1.0
sS'fraction_restricted_stock_total_stock_value'
p1567
F1.0
sg23
g5
sS'fraction_restricted_stock_deferred_total_stock_value'
p1568
F1.0
sg25
I325000
sg26
I2056427
sg27
I22
sg28
I7
sS'fraction_long_term_incentive_total_payments'
p1569
F1.0
sg30
I388167
sS'fraction_expenses_total_payments'
p1570
F1.0
sS'fraction_deferred_income_total_payments'
p1571
F1.0
sg33
I259996
sS'fraction_exercised_stock_options_total_stock_value'
p1572
F1.0
sg35
I1034395
sS'fraction_director_fees_total_payments'
p1573
F1.0
sg37
F0.23333333333333334
sg38
I1668260
sS'fraction_salary_total_payments'
p1574
F1.0
ssS'WHITE JR THOMAS E'
p1575
(dp1576
g3
g5
sg4
g5
sg6
I81353
sS'fraction_deferral_payments_total_payments'
p1577
F1.0
sg8
I00
sg9
g5
sS'fraction_loan_advances_total_payments'
p1578
F1.0
sg11
S'thomas.white@enron.com'
p1579
sg13
g5
sS'fraction_bonus_total_payments'
p1580
F1.0
sg15
F0.0
sg16
g5
sg17
g5
sg18
g5
sg19
g5
sg20
I1085463
sS'fraction_other_total_payments'
p1581
F1.0
sS'fraction_restricted_stock_total_stock_value'
p1582
F1.0
sg23
g5
sS'fraction_restricted_stock_deferred_total_stock_value'
p1583
F1.0
sg25
I450000
sg26
I15144123
sg27
g5
sg28
g5
sS'fraction_long_term_incentive_total_payments'
p1584
F1.0
sg30
I13847074
sS'fraction_expenses_total_payments'
p1585
F1.0
sS'fraction_deferred_income_total_payments'
p1586
F1.0
sg33
I317543
sS'fraction_exercised_stock_options_total_stock_value'
p1587
F1.0
sg35
I1934359
sS'fraction_director_fees_total_payments'
p1588
F1.0
sg37
F0.0
sg38
I1297049
sS'fraction_salary_total_payments'
p1589
F1.0
ssS'CHRISTODOULOU DIOMEDES'
p1590
(dp1591
g3
g5
sg4
g5
sg6
g5
sS'fraction_deferral_payments_total_payments'
p1592
F0.0
sg8
I00
sg9
g5
sS'fraction_loan_advances_total_payments'
p1593
F0.0
sg11
S'diomedes.christodoulou@enron.com'
p1594
sg13
g5
sS'fraction_bonus_total_payments'
p1595
F0.0
sg15
F0.0
sg16
g5
sg17
g5
sg18
g5
sg19
g5
sg20
g5
sS'fraction_other_total_payments'
p1596
F0.0
sS'fraction_restricted_stock_total_stock_value'
p1597
F1.0
sg23
g5
sS'fraction_restricted_stock_deferred_total_stock_value'
p1598
F1.0
sg25
g5
sg26
I6077885
sg27
g5
sg28
g5
sS'fraction_long_term_incentive_total_payments'
p1599
F0.0
sg30
I950730
sS'fraction_expenses_total_payments'
p1600
F0.0
sS'fraction_deferred_income_total_payments'
p1601
F0.0
sg33
g5
sS'fraction_exercised_stock_options_total_stock_value'
p1602
F1.0
sg35
g5
sS'fraction_director_fees_total_payments'
p1603
F0.0
sg37
F0.0
sg38
I5127155
sS'fraction_salary_total_payments'
p1604
F0.0
ssS'ALLEN PHILLIP K'
p1605
(dp1606
g3
I2902
sg4
I2869717
sg6
I13868
sS'fraction_deferral_payments_total_payments'
p1607
F1.0
sg8
I00
sg9
I-3081055
sS'fraction_loan_advances_total_payments'
p1608
F1.0
sg11
S'phillip.allen@enron.com'
p1609
sg13
I304805
sS'fraction_bonus_total_payments'
p1610
F1.0
sg15
F0.016195727084769126
sg16
I-126027
sg17
I1407
sg18
g5
sg19
I2195
sg20
I152
sS'fraction_other_total_payments'
p1611
F1.0
sS'fraction_restricted_stock_total_stock_value'
p1612
F1.0
sg23
g5
sS'fraction_restricted_stock_deferred_total_stock_value'
p1613
F1.0
sg25
I4175000
sg26
I1729541
sg27
I47
sg28
I65
sS'fraction_long_term_incentive_total_payments'
p1614
F1.0
sg30
I126027
sS'fraction_expenses_total_payments'
p1615
F1.0
sS'fraction_deferred_income_total_payments'
p1616
F1.0
sg33
I201955
sS'fraction_exercised_stock_options_total_stock_value'
p1617
F1.0
sg35
I4484442
sS'fraction_director_fees_total_payments'
p1618
F1.0
sg37
F0.029612756264236904
sg38
I1729541
sS'fraction_salary_total_payments'
p1619
F1.0
ssS'SHARP VICTORIA T'
p1620
(dp1621
g3
I3136
sg4
I187469
sg6
I116337
sS'fraction_deferral_payments_total_payments'
p1622
F1.0
sg8
I00
sg9
g5
sS'fraction_loan_advances_total_payments'
p1623
F1.0
sg11
S'vicki.sharp@enron.com'
p1624
sg13
I422158
sS'fraction_bonus_total_payments'
p1625
F1.0
sg15
F0.007653061224489796
sg16
g5
sg17
I2477
sg18
g5
sg19
I136
sg20
I2401
sS'fraction_other_total_payments'
p1626
F1.0
sS'fraction_restricted_stock_total_stock_value'
p1627
F1.0
sg23
g5
sS'fraction_restricted_stock_deferred_total_stock_value'
p1628
F1.0
sg25
I600000
sg26
I494136
sg27
I24
sg28
I6
sS'fraction_long_term_incentive_total_payments'
p1629
F1.0
sg30
I213063
sS'fraction_expenses_total_payments'
p1630
F1.0
sS'fraction_deferred_income_total_payments'
p1631
F1.0
sg33
I248146
sS'fraction_exercised_stock_options_total_stock_value'
p1632
F1.0
sg35
I1576511
sS'fraction_director_fees_total_payments'
p1633
F1.0
sg37
F0.04411764705882353
sg38
I281073
sS'fraction_salary_total_payments'
p1634
F1.0
ssS'JAEDICKE ROBERT'
p1635
(dp1636
g3
g5
sg4
g5
sg6
g5
sS'fraction_deferral_payments_total_payments'
p1637
F1.0
sg8
I00
sg9
I-25000
sS'fraction_loan_advances_total_payments'
p1638
F1.0
sg11
g5
sg13
g5
sS'fraction_bonus_total_payments'
p1639
F1.0
sg15
F0.0
sg16
I-44093
sg17
g5
sg18
g5
sg19
g5
sg20
g5
sS'fraction_other_total_payments'
p1640
F1.0
sS'fraction_restricted_stock_total_stock_value'
p1641
F1.0
sg23
I108750
sS'fraction_restricted_stock_deferred_total_stock_value'
p1642
F1.0
sg25
g5
sg26
I431750
sg27
g5
sg28
g5
sS'fraction_long_term_incentive_total_payments'
p1643
F1.0
sg30
I44093
sS'fraction_expenses_total_payments'
p1644
F1.0
sS'fraction_deferred_income_total_payments'
p1645
F1.0
sg33
g5
sS'fraction_exercised_stock_options_total_stock_value'
p1646
F1.0
sg35
I83750
sS'fraction_director_fees_total_payments'
p1647
F1.0
sg37
F0.0
sg38
I431750
sS'fraction_salary_total_payments'
p1648
F1.0
ssS'WINOKUR JR. HERBERT S'
p1649
(dp1650
g3
g5
sg4
g5
sg6
I1413
sS'fraction_deferral_payments_total_payments'
p1651
F1.0
sg8
I00
sg9
I-25000
sS'fraction_loan_advances_total_payments'
p1652
F1.0
sg11
g5
sg13
g5
sS'fraction_bonus_total_payments'
p1653
F1.0
sg15
F0.0
sg16
g5
sg17
g5
sg18
g5
sg19
g5
sg20
g5
sS'fraction_other_total_payments'
p1654
F1.0
sS'fraction_restricted_stock_total_stock_value'
p1655
F0.0
sg23
I108579
sS'fraction_restricted_stock_deferred_total_stock_value'
p1656
F0.0
sg25
g5
sg26
g5
sg27
g5
sg28
g5
sS'fraction_long_term_incentive_total_payments'
p1657
F1.0
sg30
g5
sS'fraction_expenses_total_payments'
p1658
F1.0
sS'fraction_deferred_income_total_payments'
p1659
F1.0
sg33
g5
sS'fraction_exercised_stock_options_total_stock_value'
p1660
F0.0
sg35
I84992
sS'fraction_director_fees_total_payments'
p1661
F1.0
sg37
F0.0
sg38
g5
sS'fraction_salary_total_payments'
p1662
F1.0
ssS'BROWN MICHAEL'
p1663
(dp1664
g3
I1486
sg4
g5
sg6
I49288
sS'fraction_deferral_payments_total_payments'
p1665
F1.0
sg8
I00
sg9
g5
sS'fraction_loan_advances_total_payments'
p1666
F1.0
sg11
S'michael.brown@enron.com'
p1667
sg13
g5
sS'fraction_bonus_total_payments'
p1668
F1.0
sg15
F0.008748317631224764
sg16
g5
sg17
I761
sg18
g5
sg19
I41
sg20
g5
sS'fraction_other_total_payments'
p1669
F1.0
sS'fraction_restricted_stock_total_stock_value'
p1670
F0.0
sg23
g5
sS'fraction_restricted_stock_deferred_total_stock_value'
p1671
F0.0
sg25
g5
sg26
g5
sg27
I13
sg28
I1
sS'fraction_long_term_incentive_total_payments'
p1672
F1.0
sg30
g5
sS'fraction_expenses_total_payments'
p1673
F1.0
sS'fraction_deferred_income_total_payments'
p1674
F1.0
sg33
g5
sS'fraction_exercised_stock_options_total_stock_value'
p1675
F0.0
sg35
I49288
sS'fraction_director_fees_total_payments'
p1676
F1.0
sg37
F0.024390243902439025
sg38
g5
sS'fraction_salary_total_payments'
p1677
F1.0
ssS'BADUM JAMES P'
p1678
(dp1679
g3
g5
sg4
I178980
sg6
I3486
sS'fraction_deferral_payments_total_payments'
p1680
F1.0
sg8
I00
sg9
g5
sS'fraction_loan_advances_total_payments'
p1681
F1.0
sg11
g5
sg13
g5
sS'fraction_bonus_total_payments'
p1682
F1.0
sg15
F0.0
sg16
g5
sg17
g5
sg18
g5
sg19
g5
sg20
g5
sS'fraction_other_total_payments'
p1683
F1.0
sS'fraction_restricted_stock_total_stock_value'
p1684
F1.0
sg23
g5
sS'fraction_restricted_stock_deferred_total_stock_value'
p1685
F1.0
sg25
g5
sg26
I257817
sg27
g5
sg28
g5
sS'fraction_long_term_incentive_total_payments'
p1686
F1.0
sg30
g5
sS'fraction_expenses_total_payments'
p1687
F1.0
sS'fraction_deferred_income_total_payments'
p1688
F1.0
sg33
g5
sS'fraction_exercised_stock_options_total_stock_value'
p1689
F1.0
sg35
I182466
sS'fraction_director_fees_total_payments'
p1690
F1.0
sg37
F0.0
sg38
I257817
sS'fraction_salary_total_payments'
p1691
F1.0
ssS'HUGHES JAMES A'
p1692
(dp1693
g3
I719
sg4
g5
sg6
g5
sS'fraction_deferral_payments_total_payments'
p1694
F0.0
sg8
I00
sg9
g5
sS'fraction_loan_advances_total_payments'
p1695
F0.0
sg11
S'james.hughes@enron.com'
p1696
sg13
g5
sS'fraction_bonus_total_payments'
p1697
F0.0
sg15
F0.048678720445062586
sg16
g5
sg17
I589
sg18
g5
sg19
I34
sg20
g5
sS'fraction_other_total_payments'
p1698
F0.0
sS'fraction_restricted_stock_total_stock_value'
p1699
F1.0
sg23
g5
sS'fraction_restricted_stock_deferred_total_stock_value'
p1700
F1.0
sg25
g5
sg26
I1118394
sg27
I35
sg28
I5
sS'fraction_long_term_incentive_total_payments'
p1701
F0.0
sg30
I363428
sS'fraction_expenses_total_payments'
p1702
F0.0
sS'fraction_deferred_income_total_payments'
p1703
F0.0
sg33
g5
sS'fraction_exercised_stock_options_total_stock_value'
p1704
F1.0
sg35
g5
sS'fraction_director_fees_total_payments'
p1705
F0.0
sg37
F0.14705882352941177
sg38
I754966
sS'fraction_salary_total_payments'
p1706
F0.0
ssS'REYNOLDS LAWRENCE'
p1707
(dp1708
g3
g5
sg4
I51365
sg6
I8409
sS'fraction_deferral_payments_total_payments'
p1709
F1.0
sg8
I00
sg9
I-200000
sS'fraction_loan_advances_total_payments'
p1710
F1.0
sg11
g5
sg13
I156250
sS'fraction_bonus_total_payments'
p1711
F1.0
sg15
F0.0
sg16
I-140264
sg17
g5
sg18
g5
sg19
g5
sg20
I202052
sS'fraction_other_total_payments'
p1712
F1.0
sS'fraction_restricted_stock_total_stock_value'
p1713
F1.0
sg23
g5
sS'fraction_restricted_stock_deferred_total_stock_value'
p1714
F1.0
sg25
I100000
sg26
I4221891
sg27
g5
sg28
g5
sS'fraction_long_term_incentive_total_payments'
p1715
F1.0
sg30
I201483
sS'fraction_expenses_total_payments'
p1716
F1.0
sS'fraction_deferred_income_total_payments'
p1717
F1.0
sg33
I76399
sS'fraction_exercised_stock_options_total_stock_value'
p1718
F1.0
sg35
I394475
sS'fraction_director_fees_total_payments'
p1719
F1.0
sg37
F0.0
sg38
I4160672
sS'fraction_salary_total_payments'
p1720
F1.0
ssS'DIMICHELE RICHARD G'
p1721
(dp1722
g3
g5
sg4
g5
sg6
I35812
sS'fraction_deferral_payments_total_payments'
p1723
F1.0
sg8
I00
sg9
g5
sS'fraction_loan_advances_total_payments'
p1724
F1.0
sg11
S'richard.dimichele@enron.com'
p1725
sg13
I694862
sS'fraction_bonus_total_payments'
p1726
F1.0
sg15
F0.0
sg16
g5
sg17
g5
sg18
g5
sg19
g5
sg20
I374689
sS'fraction_other_total_payments'
p1727
F1.0
sS'fraction_restricted_stock_total_stock_value'
p1728
F1.0
sg23
g5
sS'fraction_restricted_stock_deferred_total_stock_value'
p1729
F1.0
sg25
I1000000
sg26
I8317782
sg27
g5
sg28
g5
sS'fraction_long_term_incentive_total_payments'
p1730
F1.0
sg30
I126027
sS'fraction_expenses_total_payments'
p1731
F1.0
sS'fraction_deferred_income_total_payments'
p1732
F1.0
sg33
I262788
sS'fraction_exercised_stock_options_total_stock_value'
p1733
F1.0
sg35
I2368151
sS'fraction_director_fees_total_payments'
p1734
F1.0
sg37
F0.0
sg38
I8191755
sS'fraction_salary_total_payments'
p1735
F1.0
ssS'BHATNAGAR SANJAY'
p1736
(dp1737
g3
I523
sg4
g5
sg6
g5
sS'fraction_deferral_payments_total_payments'
p1738
F1.0
sg8
I00
sg9
g5
sS'fraction_loan_advances_total_payments'
p1739
F1.0
sg11
S'sanjay.bhatnagar@enron.com'
p1740
sg13
g5
sS'fraction_bonus_total_payments'
p1741
F1.0
sg15
F0.0
sg16
I15456290
sg17
I463
sg18
g5
sg19
I29
sg20
I137864
sS'fraction_other_total_payments'
p1742
F1.0
sS'fraction_restricted_stock_total_stock_value'
p1743
F0.0
sg23
I137864
sS'fraction_restricted_stock_deferred_total_stock_value'
p1744
F0.0
sg25
g5
sS'total_stock_value'
p1745
S'NaN'
p1746
sg27
I0
sg28
I1
sS'fraction_long_term_incentive_total_payments'
p1747
F1.0
sg30
I-2604490
sS'fraction_expenses_total_payments'
p1748
F1.0
sS'fraction_deferred_income_total_payments'
p1749
F1.0
sg33
g5
sS'fraction_exercised_stock_options_total_stock_value'
p1750
F0.0
sg35
I15456290
sS'fraction_director_fees_total_payments'
p1751
F1.0
sg37
F0.034482758620689655
sg38
I2604490
sS'fraction_salary_total_payments'
p1752
F1.0
ssS'CARTER REBECCA C'
p1753
(dp1754
g3
I312
sg4
g5
sg6
g5
sS'fraction_deferral_payments_total_payments'
p1755
F1.0
sg8
I00
sg9
I-159792
sS'fraction_loan_advances_total_payments'
p1756
F1.0
sg11
S'rebecca.carter@enron.com'
p1757
sg13
I75000
sS'fraction_bonus_total_payments'
p1758
F1.0
sg15
F0.09294871794871795
sg16
I-307301
sg17
I196
sg18
g5
sg19
I15
sg20
I540
sS'fraction_other_total_payments'
p1759
F1.0
sS'fraction_restricted_stock_total_stock_value'
p1760
F0.0
sg23
g5
sS'fraction_restricted_stock_deferred_total_stock_value'
p1761
F0.0
sg25
I300000
sg26
g5
sg27
I29
sg28
I7
sS'fraction_long_term_incentive_total_payments'
p1762
F1.0
sg30
I307301
sS'fraction_expenses_total_payments'
p1763
F1.0
sS'fraction_deferred_income_total_payments'
p1764
F1.0
sg33
I261809
sS'fraction_exercised_stock_options_total_stock_value'
p1765
F0.0
sg35
I477557
sS'fraction_director_fees_total_payments'
p1766
F1.0
sg37
F0.4666666666666667
sg38
g5
sS'fraction_salary_total_payments'
p1767
F1.0
ssS'BUCHANAN HAROLD G'
p1768
(dp1769
g3
I1088
sg4
g5
sg6
I600
sS'fraction_deferral_payments_total_payments'
p1770
F1.0
sg8
I00
sg9
g5
sS'fraction_loan_advances_total_payments'
p1771
F1.0
sg11
S'john.buchanan@enron.com'
p1772
sg13
I304805
sS'fraction_bonus_total_payments'
p1773
F1.0
sg15
F0.0
sg16
g5
sg17
I23
sg18
g5
sg19
I125
sg20
I1215
sS'fraction_other_total_payments'
p1774
F1.0
sS'fraction_restricted_stock_total_stock_value'
p1775
F1.0
sg23
g5
sS'fraction_restricted_stock_deferred_total_stock_value'
p1776
F1.0
sg25
I500000
sg26
I1014505
sg27
I0
sg28
I0
sS'fraction_long_term_incentive_total_payments'
p1777
F1.0
sg30
I189041
sS'fraction_expenses_total_payments'
p1778
F1.0
sS'fraction_deferred_income_total_payments'
p1779
F1.0
sg33
I248017
sS'fraction_exercised_stock_options_total_stock_value'
p1780
F1.0
sg35
I1054637
sS'fraction_director_fees_total_payments'
p1781
F1.0
sg37
F0.0
sg38
I825464
sS'fraction_salary_total_payments'
p1782
F1.0
ssS'YEAP SOON'
p1783
(dp1784
g3
g5
sg4
g5
sg6
I55097
sS'fraction_deferral_payments_total_payments'
p1785
F1.0
sg8
I00
sg9
g5
sS'fraction_loan_advances_total_payments'
p1786
F1.0
sg11
g5
sg13
g5
sS'fraction_bonus_total_payments'
p1787
F1.0
sg15
F0.0
sg16
g5
sg17
g5
sg18
g5
sg19
g5
sg20
g5
sS'fraction_other_total_payments'
p1788
F1.0
sS'fraction_restricted_stock_total_stock_value'
p1789
F1.0
sg23
g5
sS'fraction_restricted_stock_deferred_total_stock_value'
p1790
F1.0
sg25
g5
sg26
I192758
sg27
g5
sg28
g5
sS'fraction_long_term_incentive_total_payments'
p1791
F1.0
sg30
g5
sS'fraction_expenses_total_payments'
p1792
F1.0
sS'fraction_deferred_income_total_payments'
p1793
F1.0
sg33
g5
sS'fraction_exercised_stock_options_total_stock_value'
p1794
F1.0
sg35
I55097
sS'fraction_director_fees_total_payments'
p1795
F1.0
sg37
F0.0
sg38
I192758
sS'fraction_salary_total_payments'
p1796
F1.0
ssS'MURRAY JULIA H'
p1797
(dp1798
g3
I2192
sg4
g5
sg6
I57580
sS'fraction_deferral_payments_total_payments'
p1799
F1.0
sg8
I00
sg9
g5
sS'fraction_loan_advances_total_payments'
p1800
F1.0
sg11
S'julia.murray@enron.com'
p1801
sg13
I125000
sS'fraction_bonus_total_payments'
p1802
F1.0
sg15
F0.005018248175182482
sg16
g5
sg17
I395
sg18
g5
sg19
I45
sg20
I330
sS'fraction_other_total_payments'
p1803
F1.0
sS'fraction_restricted_stock_total_stock_value'
p1804
F1.0
sg23
g5
sS'fraction_restricted_stock_deferred_total_stock_value'
p1805
F1.0
sg25
I400000
sg26
I597461
sg27
I11
sg28
I2
sS'fraction_long_term_incentive_total_payments'
p1806
F1.0
sg30
I196983
sS'fraction_expenses_total_payments'
p1807
F1.0
sS'fraction_deferred_income_total_payments'
p1808
F1.0
sg33
I229284
sS'fraction_exercised_stock_options_total_stock_value'
p1809
F1.0
sg35
I812194
sS'fraction_director_fees_total_payments'
p1810
F1.0
sg37
F0.044444444444444446
sg38
I400478
sS'fraction_salary_total_payments'
p1811
F1.0
ssS'GARLAND C KEVIN'
p1812
(dp1813
g3
I209
sg4
g5
sg6
I48405
sS'fraction_deferral_payments_total_payments'
p1814
F1.0
sg8
I00
sg9
g5
sS'fraction_loan_advances_total_payments'
p1815
F1.0
sg11
S'kevin.garland@enron.com'
p1816
sg13
I375304
sS'fraction_bonus_total_payments'
p1817
F1.0
sg15
F0.04784688995215311
sg16
g5
sg17
I178
sg18
g5
sg19
I44
sg20
I60814
sS'fraction_other_total_payments'
p1818
F1.0
sS'fraction_restricted_stock_total_stock_value'
p1819
F1.0
sg23
g5
sS'fraction_restricted_stock_deferred_total_stock_value'
p1820
F1.0
sg25
I850000
sg26
I896153
sg27
I10
sg28
I27
sS'fraction_long_term_incentive_total_payments'
p1821
F1.0
sg30
I259907
sS'fraction_expenses_total_payments'
p1822
F1.0
sS'fraction_deferred_income_total_payments'
p1823
F1.0
sg33
I231946
sS'fraction_exercised_stock_options_total_stock_value'
p1824
F1.0
sg35
I1566469
sS'fraction_director_fees_total_payments'
p1825
F1.0
sg37
F0.6136363636363636
sg38
I636246
sS'fraction_salary_total_payments'
p1826
F1.0
ssS'DODSON KEITH'
p1827
(dp1828
g3
I176
sg4
g5
sg6
I28164
sS'fraction_deferral_payments_total_payments'
p1829
F1.0
sg8
I00
sg9
g5
sS'fraction_loan_advances_total_payments'
p1830
F1.0
sg11
S'keith.dodson@enron.com'
p1831
sg13
g5
sS'fraction_bonus_total_payments'
p1832
F1.0
sg15
F0.056818181818181816
sg16
g5
sg17
I114
sg18
g5
sg19
I14
sg20
I774
sS'fraction_other_total_payments'
p1833
F1.0
sS'fraction_restricted_stock_total_stock_value'
p1834
F0.0
sg23
g5
sS'fraction_restricted_stock_deferred_total_stock_value'
p1835
F0.0
sg25
I70000
sg26
g5
sg27
I10
sg28
I3
sS'fraction_long_term_incentive_total_payments'
p1836
F1.0
sg30
g5
sS'fraction_expenses_total_payments'
p1837
F1.0
sS'fraction_deferred_income_total_payments'
p1838
F1.0
sg33
I221003
sS'fraction_exercised_stock_options_total_stock_value'
p1839
F0.0
sg35
I319941
sS'fraction_director_fees_total_payments'
p1840
F1.0
sg37
F0.21428571428571427
sg38
g5
sS'fraction_salary_total_payments'
p1841
F1.0
ssS'YEAGER F SCOTT'
p1842
(dp1843
g3
g5
sg4
g5
sg6
I53947
sS'fraction_deferral_payments_total_payments'
p1844
F1.0
sg8
I01
sg9
g5
sS'fraction_loan_advances_total_payments'
p1845
F1.0
sg11
S'scott.yeager@enron.com'
p1846
sg13
g5
sS'fraction_bonus_total_payments'
p1847
F1.0
sg15
F0.0
sg16
g5
sg17
g5
sg18
g5
sg19
g5
sg20
I147950
sS'fraction_other_total_payments'
p1848
F1.0
sS'fraction_restricted_stock_total_stock_value'
p1849
F1.0
sg23
g5
sS'fraction_restricted_stock_deferred_total_stock_value'
p1850
F1.0
sg25
g5
sg26
I11884758
sg27
g5
sg28
g5
sS'fraction_long_term_incentive_total_payments'
p1851
F1.0
sg30
I3576206
sS'fraction_expenses_total_payments'
p1852
F1.0
sS'fraction_deferred_income_total_payments'
p1853
F1.0
sg33
I158403
sS'fraction_exercised_stock_options_total_stock_value'
p1854
F1.0
sg35
I360300
sS'fraction_director_fees_total_payments'
p1855
F1.0
sg37
F0.0
sg38
I8308552
sS'fraction_salary_total_payments'
p1856
F1.0
ssS'HIRKO JOSEPH'
p1857
(dp1858
g3
g5
sg4
I10259
sg6
I77978
sS'fraction_deferral_payments_total_payments'
p1859
F1.0
sg8
I01
sg9
g5
sS'fraction_loan_advances_total_payments'
p1860
F1.0
sg11
S'joe.hirko@enron.com'
p1861
sg13
g5
sS'fraction_bonus_total_payments'
p1862
F1.0
sg15
F0.0
sg16
g5
sg17
g5
sg18
g5
sg19
g5
sg20
I2856
sS'fraction_other_total_payments'
p1863
F1.0
sS'fraction_restricted_stock_total_stock_value'
p1864
F1.0
sg23
g5
sS'fraction_restricted_stock_deferred_total_stock_value'
p1865
F1.0
sg25
g5
sg26
I30766064
sg27
g5
sg28
g5
sS'fraction_long_term_incentive_total_payments'
p1866
F1.0
sg30
g5
sS'fraction_expenses_total_payments'
p1867
F1.0
sS'fraction_deferred_income_total_payments'
p1868
F1.0
sg33
g5
sS'fraction_exercised_stock_options_total_stock_value'
p1869
F1.0
sg35
I91093
sS'fraction_director_fees_total_payments'
p1870
F1.0
sg37
F0.0
sg38
I30766064
sS'fraction_salary_total_payments'
p1871
F1.0
ssS'DIETRICH JANET R'
p1872
(dp1873
g3
I2572
sg4
g5
sg6
I3475
sS'fraction_deferral_payments_total_payments'
p1874
F1.0
sg8
I00
sg9
g5
sS'fraction_loan_advances_total_payments'
p1875
F1.0
sg11
S'janet.dietrich@enron.com'
p1876
sg13
I556416
sS'fraction_bonus_total_payments'
p1877
F1.0
sg15
F0.11858475894245724
sg16
g5
sg17
I1902
sg18
g5
sg19
I63
sg20
I473
sS'fraction_other_total_payments'
p1878
F1.0
sS'fraction_restricted_stock_total_stock_value'
p1879
F1.0
sg23
g5
sS'fraction_restricted_stock_deferred_total_stock_value'
p1880
F1.0
sg25
I600000
sg26
I1865087
sg27
I305
sg28
I14
sS'fraction_long_term_incentive_total_payments'
p1881
F1.0
sg30
I315068
sS'fraction_expenses_total_payments'
p1882
F1.0
sS'fraction_deferred_income_total_payments'
p1883
F1.0
sg33
I250100
sS'fraction_exercised_stock_options_total_stock_value'
p1884
F1.0
sg35
I1410464
sS'fraction_director_fees_total_payments'
p1885
F1.0
sg37
F0.2222222222222222
sg38
I1550019
sS'fraction_salary_total_payments'
p1886
F1.0
ssS'DERRICK JR. JAMES V'
p1887
(dp1888
g3
I2181
sg4
g5
sg6
I51124
sS'fraction_deferral_payments_total_payments'
p1889
F1.0
sg8
I00
sg9
I-1284000
sS'fraction_loan_advances_total_payments'
p1890
F1.0
sg11
S'james.derrick@enron.com'
p1891
sg13
I484000
sS'fraction_bonus_total_payments'
p1892
F1.0
sg15
F0.029344337459880788
sg16
I-1787380
sg17
I1401
sg18
g5
sg19
I909
sg20
I7482
sS'fraction_other_total_payments'
p1893
F1.0
sS'fraction_restricted_stock_total_stock_value'
p1894
F1.0
sg23
g5
sS'fraction_restricted_stock_deferred_total_stock_value'
p1895
F1.0
sg25
I800000
sg26
I8831913
sg27
I64
sg28
I20
sS'fraction_long_term_incentive_total_payments'
p1896
F1.0
sg30
I1787380
sS'fraction_expenses_total_payments'
p1897
F1.0
sS'fraction_deferred_income_total_payments'
p1898
F1.0
sg33
I492375
sS'fraction_exercised_stock_options_total_stock_value'
p1899
F1.0
sg35
I550981
sS'fraction_director_fees_total_payments'
p1900
F1.0
sg37
F0.022002200220022004
sg38
I8831913
sS'fraction_salary_total_payments'
p1901
F1.0
ssS'FREVERT MARK A'
p1902
(dp1903
g3
I3275
sg4
I6426990
sg6
I86987
sS'fraction_deferral_payments_total_payments'
p1904
F1.0
sg8
I00
sg9
I-3367011
sS'fraction_loan_advances_total_payments'
p1905
F1.0
sg11
S'mark.frevert@enron.com'
p1906
sg13
I1617011
sS'fraction_bonus_total_payments'
p1907
F1.0
sg15
F0.07389312977099237
sg16
g5
sg17
I2979
sg18
I2000000
sg19
I21
sg20
I7427621
sS'fraction_other_total_payments'
p1908
F1.0
sS'fraction_restricted_stock_total_stock_value'
p1909
F1.0
sg23
g5
sS'fraction_restricted_stock_deferred_total_stock_value'
p1910
F1.0
sg25
I2000000
sg26
I14622185
sg27
I242
sg28
I6
sS'fraction_long_term_incentive_total_payments'
p1911
F1.0
sg30
I4188667
sS'fraction_expenses_total_payments'
p1912
F1.0
sS'fraction_deferred_income_total_payments'
p1913
F1.0
sg33
I1060932
sS'fraction_exercised_stock_options_total_stock_value'
p1914
F1.0
sg35
I17252530
sS'fraction_director_fees_total_payments'
p1915
F1.0
sg37
F0.2857142857142857
sg38
I10433518
sS'fraction_salary_total_payments'
p1916
F1.0
ssS'PAI LOU L'
p1917
(dp1918
g3
g5
sg4
g5
sg6
I32047
sS'fraction_deferral_payments_total_payments'
p1919
F1.0
sg8
I00
sg9
g5
sS'fraction_loan_advances_total_payments'
p1920
F1.0
sg11
S'lou.pai@enron.com'
p1921
sg13
g5
sS'fraction_bonus_total_payments'
p1922
F1.0
sg15
F0.0
sg16
g5
sg17
g5
sg18
g5
sg19
g5
sg20
I1829457
sS'fraction_other_total_payments'
p1923
F1.0
sS'fraction_restricted_stock_total_stock_value'
p1924
F1.0
sg23
g5
sS'fraction_restricted_stock_deferred_total_stock_value'
p1925
F1.0
sg25
I1000000
sg26
I23817930
sg27
g5
sg28
g5
sS'fraction_long_term_incentive_total_payments'
p1926
F1.0
sg30
I8453763
sS'fraction_expenses_total_payments'
p1927
F1.0
sS'fraction_deferred_income_total_payments'
p1928
F1.0
sg33
I261879
sS'fraction_exercised_stock_options_total_stock_value'
p1929
F1.0
sg35
I3123383
sS'fraction_director_fees_total_payments'
p1930
F1.0
sg37
F0.0
sg38
I15364167
sS'fraction_salary_total_payments'
p1931
F1.0
ssS'BAY FRANKLIN R'
p1932
(dp1933
g3
g5
sg4
I260455
sg6
I129142
sS'fraction_deferral_payments_total_payments'
p1934
F1.0
sg8
I00
sg9
I-201641
sS'fraction_loan_advances_total_payments'
p1935
F1.0
sg11
S'frank.bay@enron.com'
p1936
sg13
g5
sS'fraction_bonus_total_payments'
p1937
F1.0
sg15
F0.0
sg16
I-82782
sg17
g5
sg18
g5
sg19
g5
sg20
I69
sS'fraction_other_total_payments'
p1938
F1.0
sS'fraction_restricted_stock_total_stock_value'
p1939
F1.0
sg23
g5
sS'fraction_restricted_stock_deferred_total_stock_value'
p1940
F1.0
sg25
I400000
sg26
I63014
sg27
g5
sg28
g5
sS'fraction_long_term_incentive_total_payments'
p1941
F1.0
sg30
I145796
sS'fraction_expenses_total_payments'
p1942
F1.0
sS'fraction_deferred_income_total_payments'
p1943
F1.0
sg33
I239671
sS'fraction_exercised_stock_options_total_stock_value'
p1944
F1.0
sg35
I827696
sS'fraction_director_fees_total_payments'
p1945
F1.0
sg37
F0.0
sg38
g5
sS'fraction_salary_total_payments'
p1946
F1.0
ssS'HAYSLETT RODERICK J'
p1947
(dp1948
g3
I2649
sg4
g5
sg6
g5
sS'fraction_deferral_payments_total_payments'
p1949
F0.0
sg8
I00
sg9
g5
sS'fraction_loan_advances_total_payments'
p1950
F0.0
sg11
S'rod.hayslett@enron.com'
p1951
sg13
g5
sS'fraction_bonus_total_payments'
p1952
F0.0
sg15
F0.01321253303133258
sg16
g5
sg17
I571
sg18
g5
sg19
I1061
sg20
g5
sS'fraction_other_total_payments'
p1953
F0.0
sS'fraction_restricted_stock_total_stock_value'
p1954
F1.0
sg23
g5
sS'fraction_restricted_stock_deferred_total_stock_value'
p1955
F1.0
sg25
g5
sg26
I346663
sg27
I35
sg28
I38
sS'fraction_long_term_incentive_total_payments'
p1956
F0.0
sg30
I346663
sS'fraction_expenses_total_payments'
p1957
F0.0
sS'fraction_deferred_income_total_payments'
p1958
F0.0
sg33
g5
sS'fraction_exercised_stock_options_total_stock_value'
p1959
F1.0
sg35
g5
sS'fraction_director_fees_total_payments'
p1960
F0.0
sg37
F0.03581526861451461
sg38
g5
sS'fraction_salary_total_payments'
p1961
F0.0
ssS'FUGH JOHN L'
p1962
(dp1963
g3
g5
sg4
I50591
sg6
g5
sS'fraction_deferral_payments_total_payments'
p1964
F1.0
sg8
I00
sg9
g5
sS'fraction_loan_advances_total_payments'
p1965
F1.0
sg11
g5
sg13
g5
sS'fraction_bonus_total_payments'
p1966
F1.0
sg15
F0.0
sg16
g5
sg17
g5
sg18
g5
sg19
g5
sg20
g5
sS'fraction_other_total_payments'
p1967
F1.0
sS'fraction_restricted_stock_total_stock_value'
p1968
F1.0
sg23
g5
sS'fraction_restricted_stock_deferred_total_stock_value'
p1969
F1.0
sg25
g5
sg26
I176378
sg27
g5
sg28
g5
sS'fraction_long_term_incentive_total_payments'
p1970
F1.0
sg30
g5
sS'fraction_expenses_total_payments'
p1971
F1.0
sS'fraction_deferred_income_total_payments'
p1972
F1.0
sg33
g5
sS'fraction_exercised_stock_options_total_stock_value'
p1973
F1.0
sg35
I50591
sS'fraction_director_fees_total_payments'
p1974
F1.0
sg37
F0.0
sg38
I176378
sS'fraction_salary_total_payments'
p1975
F1.0
ssS'FALLON JAMES B'
p1976
(dp1977
g3
I1755
sg4
g5
sg6
I95924
sS'fraction_deferral_payments_total_payments'
p1978
F1.0
sg8
I00
sg9
g5
sS'fraction_loan_advances_total_payments'
p1979
F1.0
sg11
S'jim.fallon@enron.com'
p1980
sg13
I374347
sS'fraction_bonus_total_payments'
p1981
F1.0
sg15
F0.023931623931623933
sg16
g5
sg17
I1604
sg18
g5
sg19
I75
sg20
I401481
sS'fraction_other_total_payments'
p1982
F1.0
sS'fraction_restricted_stock_total_stock_value'
p1983
F1.0
sg23
g5
sS'fraction_restricted_stock_deferred_total_stock_value'
p1984
F1.0
sg25
I2500000
sg26
I2332399
sg27
I42
sg28
I37
sS'fraction_long_term_incentive_total_payments'
p1985
F1.0
sg30
I1392142
sS'fraction_expenses_total_payments'
p1986
F1.0
sS'fraction_deferred_income_total_payments'
p1987
F1.0
sg33
I304588
sS'fraction_exercised_stock_options_total_stock_value'
p1988
F1.0
sg35
I3676340
sS'fraction_director_fees_total_payments'
p1989
F1.0
sg37
F0.49333333333333335
sg38
I940257
sS'fraction_salary_total_payments'
p1990
F1.0
ssS'KOENIG MARK E'
p1991
(dp1992
g3
I2374
sg4
g5
sg6
I127017
sS'fraction_deferral_payments_total_payments'
p1993
F1.0
sg8
I01
sg9
g5
sS'fraction_loan_advances_total_payments'
p1994
F1.0
sg11
S'mark.koenig@enron.com'
p1995
sg13
I300000
sS'fraction_bonus_total_payments'
p1996
F1.0
sg15
F0.02232518955349621
sg16
g5
sg17
I2271
sg18
g5
sg19
I61
sg20
I150458
sS'fraction_other_total_payments'
p1997
F1.0
sS'fraction_restricted_stock_total_stock_value'
p1998
F1.0
sg23
g5
sS'fraction_restricted_stock_deferred_total_stock_value'
p1999
F1.0
sg25
I700000
sg26
I1920055
sg27
I53
sg28
I15
sS'fraction_long_term_incentive_total_payments'
p2000
F1.0
sg30
I1248318
sS'fraction_expenses_total_payments'
p2001
F1.0
sS'fraction_deferred_income_total_payments'
p2002
F1.0
sg33
I309946
sS'fraction_exercised_stock_options_total_stock_value'
p2003
F1.0
sg35
I1587421
sS'fraction_director_fees_total_payments'
p2004
F1.0
sg37
F0.2459016393442623
sg38
I671737
sS'fraction_salary_total_payments'
p2005
F1.0
ssS'SAVAGE FRANK'
p2006
(dp2007
g3
g5
sg4
g5
sg6
g5
sS'fraction_deferral_payments_total_payments'
p2008
F1.0
sg8
I00
sg9
I-121284
sS'fraction_loan_advances_total_payments'
p2009
F1.0
sg11
g5
sg13
g5
sS'fraction_bonus_total_payments'
p2010
F1.0
sg15
F0.0
sg16
g5
sg17
g5
sg18
g5
sg19
g5
sg20
g5
sS'fraction_other_total_payments'
p2011
F1.0
sS'fraction_restricted_stock_total_stock_value'
p2012
F0.0
sg23
I125034
sS'fraction_restricted_stock_deferred_total_stock_value'
p2013
F0.0
sg25
g5
sg26
g5
sg27
g5
sg28
g5
sS'fraction_long_term_incentive_total_payments'
p2014
F1.0
sg30
g5
sS'fraction_expenses_total_payments'
p2015
F1.0
sS'fraction_deferred_income_total_payments'
p2016
F1.0
sg33
g5
sS'fraction_exercised_stock_options_total_stock_value'
p2017
F0.0
sg35
I3750
sS'fraction_director_fees_total_payments'
p2018
F1.0
sg37
F0.0
sg38
g5
sS'fraction_salary_total_payments'
p2019
F1.0
ssS'IZZO LAWRENCE L'
p2020
(dp2021
g3
I496
sg4
g5
sg6
I28093
sS'fraction_deferral_payments_total_payments'
p2022
F1.0
sg8
I00
sg9
g5
sS'fraction_loan_advances_total_payments'
p2023
F1.0
sg11
S'larry.izzo@enron.com'
p2024
sg13
I312500
sS'fraction_bonus_total_payments'
p2025
F1.0
sg15
F0.056451612903225805
sg16
g5
sg17
I437
sg18
g5
sg19
I19
sg20
I1553729
sS'fraction_other_total_payments'
p2026
F1.0
sS'fraction_restricted_stock_total_stock_value'
p2027
F1.0
sg23
g5
sS'fraction_restricted_stock_deferred_total_stock_value'
p2028
F1.0
sg25
g5
sg26
I5819980
sg27
I28
sg28
I5
sS'fraction_long_term_incentive_total_payments'
p2029
F1.0
sg30
I3654808
sS'fraction_expenses_total_payments'
p2030
F1.0
sS'fraction_deferred_income_total_payments'
p2031
F1.0
sg33
I85274
sS'fraction_exercised_stock_options_total_stock_value'
p2032
F1.0
sg35
I1979596
sS'fraction_director_fees_total_payments'
p2033
F1.0
sg37
F0.2631578947368421
sg38
I2165172
sS'fraction_salary_total_payments'
p2034
F1.0
ssS'TILNEY ELIZABETH A'
p2035
(dp2036
g3
I460
sg4
g5
sg6
g5
sS'fraction_deferral_payments_total_payments'
p2037
F1.0
sg8
I00
sg9
I-575000
sS'fraction_loan_advances_total_payments'
p2038
F1.0
sg11
S'elizabeth.tilney@enron.com'
p2039
sg13
I275000
sS'fraction_bonus_total_payments'
p2040
F1.0
sg15
F0.021739130434782608
sg16
g5
sg17
I379
sg18
g5
sg19
I19
sg20
I152055
sS'fraction_other_total_payments'
p2041
F1.0
sS'fraction_restricted_stock_total_stock_value'
p2042
F1.0
sg23
g5
sS'fraction_restricted_stock_deferred_total_stock_value'
p2043
F1.0
sg25
I300000
sg26
I1168042
sg27
I10
sg28
I11
sS'fraction_long_term_incentive_total_payments'
p2044
F1.0
sg30
I576792
sS'fraction_expenses_total_payments'
p2045
F1.0
sS'fraction_deferred_income_total_payments'
p2046
F1.0
sg33
I247338
sS'fraction_exercised_stock_options_total_stock_value'
p2047
F1.0
sg35
I399393
sS'fraction_director_fees_total_payments'
p2048
F1.0
sg37
F0.5789473684210527
sg38
I591250
sS'fraction_salary_total_payments'
p2049
F1.0
ssS'MARTIN AMANDA K'
p2050
(dp2051
g3
I1522
sg4
I85430
sg6
I8211
sS'fraction_deferral_payments_total_payments'
p2052
F1.0
sg8
I00
sg9
g5
sS'fraction_loan_advances_total_payments'
p2053
F1.0
sg11
S'a..martin@enron.com'
p2054
sg13
I5145434
sS'fraction_bonus_total_payments'
p2055
F1.0
sg15
F0.005256241787122208
sg16
g5
sg17
I477
sg18
g5
sg19
I230
sg20
I2818454
sS'fraction_other_total_payments'
p2056
F1.0
sS'fraction_restricted_stock_total_stock_value'
p2057
F1.0
sg23
g5
sS'fraction_restricted_stock_deferred_total_stock_value'
p2058
F1.0
sg25
g5
sg26
I2070306
sg27
I8
sg28
I0
sS'fraction_long_term_incentive_total_payments'
p2059
F1.0
sg30
g5
sS'fraction_expenses_total_payments'
p2060
F1.0
sS'fraction_deferred_income_total_payments'
p2061
F1.0
sg33
I349487
sS'fraction_exercised_stock_options_total_stock_value'
p2062
F1.0
sg35
I8407016
sS'fraction_director_fees_total_payments'
p2063
F1.0
sg37
F0.0
sg38
I2070306
sS'fraction_salary_total_payments'
p2064
F1.0
ssS'BUY RICHARD B'
p2065
(dp2066
g3
I3523
sg4
I649584
sg6
g5
sS'fraction_deferral_payments_total_payments'
p2067
F1.0
sg8
I00
sg9
I-694862
sS'fraction_loan_advances_total_payments'
p2068
F1.0
sg11
S'rick.buy@enron.com'
p2069
sg13
I769862
sS'fraction_bonus_total_payments'
p2070
F1.0
sg15
F0.04428044280442804
sg16
g5
sg17
I2333
sg18
g5
sg19
I1053
sg20
I400572
sS'fraction_other_total_payments'
p2071
F1.0
sS'fraction_restricted_stock_total_stock_value'
p2072
F1.0
sg23
g5
sS'fraction_restricted_stock_deferred_total_stock_value'
p2073
F1.0
sg25
I900000
sg26
I3444470
sg27
I156
sg28
I71
sS'fraction_long_term_incentive_total_payments'
p2074
F1.0
sg30
I901657
sS'fraction_expenses_total_payments'
p2075
F1.0
sS'fraction_deferred_income_total_payments'
p2076
F1.0
sg33
I330546
sS'fraction_exercised_stock_options_total_stock_value'
p2077
F1.0
sg35
I2355702
sS'fraction_director_fees_total_payments'
p2078
F1.0
sg37
F0.06742640075973409
sg38
I2542813
sS'fraction_salary_total_payments'
p2079
F1.0
ssS'GRAMM WENDY L'
p2080
(dp2081
g3
g5
sg4
g5
sg6
g5
sS'fraction_deferral_payments_total_payments'
p2082
F1.0
sg8
I00
sg9
g5
sS'fraction_loan_advances_total_payments'
p2083
F1.0
sg11
g5
sg13
g5
sS'fraction_bonus_total_payments'
p2084
F1.0
sg15
F0.0
sg16
g5
sg17
g5
sg18
g5
sg19
g5
sg20
g5
sS'fraction_other_total_payments'
p2085
F1.0
sS'fraction_restricted_stock_total_stock_value'
p2086
F0.0
sg23
I119292
sS'fraction_restricted_stock_deferred_total_stock_value'
p2087
F0.0
sg25
g5
sg26
g5
sg27
g5
sg28
g5
sS'fraction_long_term_incentive_total_payments'
p2088
F1.0
sg30
g5
sS'fraction_expenses_total_payments'
p2089
F1.0
sS'fraction_deferred_income_total_payments'
p2090
F1.0
sg33
g5
sS'fraction_exercised_stock_options_total_stock_value'
p2091
F0.0
sg35
I119292
sS'fraction_director_fees_total_payments'
p2092
F1.0
sg37
F0.0
sg38
g5
sS'fraction_salary_total_payments'
p2093
F1.0
ssS'CAUSEY RICHARD A'
p2094
(dp2095
g3
I1892
sg4
g5
sg6
I30674
sS'fraction_deferral_payments_total_payments'
p2096
F1.0
sg8
I01
sg9
I-235000
sS'fraction_loan_advances_total_payments'
p2097
F1.0
sg11
S'richard.causey@enron.com'
p2098
sg13
I350000
sS'fraction_bonus_total_payments'
p2099
F1.0
sg15
F0.0306553911205074
sg16
g5
sg17
I1585
sg18
g5
sg19
I49
sg20
I307895
sS'fraction_other_total_payments'
p2100
F1.0
sS'fraction_restricted_stock_total_stock_value'
p2101
F1.0
sg23
g5
sS'fraction_restricted_stock_deferred_total_stock_value'
p2102
F1.0
sg25
I1000000
sg26
I2502063
sg27
I58
sg28
I12
sS'fraction_long_term_incentive_total_payments'
p2103
F1.0
sg30
I2502063
sS'fraction_expenses_total_payments'
p2104
F1.0
sS'fraction_deferred_income_total_payments'
p2105
F1.0
sg33
I415189
sS'fraction_exercised_stock_options_total_stock_value'
p2106
F1.0
sg35
I1868758
sS'fraction_director_fees_total_payments'
p2107
F1.0
sg37
F0.24489795918367346
sg38
g5
sS'fraction_salary_total_payments'
p2108
F1.0
ssS'TAYLOR MITCHELL S'
p2109
(dp2110
g3
I533
sg4
I227449
sg6
g5
sS'fraction_deferral_payments_total_payments'
p2111
F1.0
sg8
I00
sg9
g5
sS'fraction_loan_advances_total_payments'
p2112
F1.0
sg11
S'mitchell.taylor@enron.com'
p2113
sg13
g5
sS'fraction_bonus_total_payments'
p2114
F1.0
sg15
F0.0
sg16
g5
sg17
I300
sg18
g5
sg19
I29
sg20
g5
sS'fraction_other_total_payments'
p2115
F1.0
sS'fraction_restricted_stock_total_stock_value'
p2116
F1.0
sg23
g5
sS'fraction_restricted_stock_deferred_total_stock_value'
p2117
F1.0
sg25
I600000
sg26
I3745048
sg27
I0
sg28
I0
sS'fraction_long_term_incentive_total_payments'
p2118
F1.0
sg30
I563798
sS'fraction_expenses_total_payments'
p2119
F1.0
sS'fraction_deferred_income_total_payments'
p2120
F1.0
sg33
I265214
sS'fraction_exercised_stock_options_total_stock_value'
p2121
F1.0
sg35
I1092663
sS'fraction_director_fees_total_payments'
p2122
F1.0
sg37
F0.0
sg38
I3181250
sS'fraction_salary_total_payments'
p2123
F1.0
ssS'DONAHUE JR JEFFREY M'
p2124
(dp2125
g3
I865
sg4
g5
sg6
I96268
sS'fraction_deferral_payments_total_payments'
p2126
F1.0
sg8
I00
sg9
I-300000
sS'fraction_loan_advances_total_payments'
p2127
F1.0
sg11
S'jeff.donahue@enron.com'
p2128
sg13
g5
sS'fraction_bonus_total_payments'
p2129
F1.0
sg15
F0.21734104046242775
sg16
g5
sg17
I772
sg18
g5
sg19
I22
sg20
I891
sS'fraction_other_total_payments'
p2130
F1.0
sS'fraction_restricted_stock_total_stock_value'
p2131
F1.0
sg23
g5
sS'fraction_restricted_stock_deferred_total_stock_value'
p2132
F1.0
sg25
I800000
sg26
I1080988
sg27
I188
sg28
I11
sS'fraction_long_term_incentive_total_payments'
p2133
F1.0
sg30
I315068
sS'fraction_expenses_total_payments'
p2134
F1.0
sS'fraction_deferred_income_total_payments'
p2135
F1.0
sg33
I278601
sS'fraction_exercised_stock_options_total_stock_value'
p2136
F1.0
sg35
I875760
sS'fraction_director_fees_total_payments'
p2137
F1.0
sg37
F0.5
sg38
I765920
sS'fraction_salary_total_payments'
p2138
F1.0
ssS'GLISAN JR BEN F'
p2139
(dp2140
g3
I873
sg4
g5
sg6
I125978
sS'fraction_deferral_payments_total_payments'
p2141
F1.0
sg8
I01
sg9
g5
sS'fraction_loan_advances_total_payments'
p2142
F1.0
sg11
S'ben.glisan@enron.com'
p2143
sg13
I71023
sS'fraction_bonus_total_payments'
p2144
F1.0
sg15
F0.05956471935853379
sg16
g5
sg17
I874
sg18
g5
sg19
I16
sg20
I200308
sS'fraction_other_total_payments'
p2145
F1.0
sS'fraction_restricted_stock_total_stock_value'
p2146
F1.0
sg23
g5
sS'fraction_restricted_stock_deferred_total_stock_value'
p2147
F1.0
sg25
I600000
sg26
I778546
sg27
I52
sg28
I6
sS'fraction_long_term_incentive_total_payments'
p2148
F1.0
sg30
I393818
sS'fraction_expenses_total_payments'
p2149
F1.0
sS'fraction_deferred_income_total_payments'
p2150
F1.0
sg33
I274975
sS'fraction_exercised_stock_options_total_stock_value'
p2151
F1.0
sg35
I1272284
sS'fraction_director_fees_total_payments'
p2152
F1.0
sg37
F0.375
sg38
I384728
sS'fraction_salary_total_payments'
p2153
F1.0
ss.