(lp0
S'poi'
p1
aS'salary'
p2
aS'deferral_payments'
p3
aS'total_payments'
p4
aS'loan_advances'
p5
aS'bonus'
p6
aS'restricted_stock_deferred'
p7
aS'deferred_income'
p8
aS'total_stock_value'
p9
aS'expenses'
p10
aS'exercised_stock_options'
p11
aS'other'
p12
aS'long_term_incentive'
p13
aS'restricted_stock'
p14
aS'director_fees'
p15
aS'to_messages'
p16
aS'from_poi_to_this_person'
p17
aS'from_messages'
p18
aS'from_this_person_to_poi'
p19
aS'shared_receipt_with_poi'
p20
aS'fraction_from_poi'
p21
aS'fraction_to_poi'
p22
aS'fraction_salary_total_payments'
p23
aS'fraction_deferral_payments_total_payments'
p24
aS'fraction_bonus_total_payments'
p25
aS'fraction_expenses_total_payments'
p26
aS'fraction_loan_advances_total_payments'
p27
aS'fraction_other_total_payments'
p28
aS'fraction_director_fees_total_payments'
p29
aS'fraction_deferred_income_total_payments'
p30
aS'fraction_long_term_incentive_total_payments'
p31
aS'fraction_exercised_stock_options_total_stock_value'
p32
aS'fraction_restricted_stock_total_stock_value'
p33
aS'fraction_restricted_stock_deferred_total_stock_value'
p34
a.